---
triple:          'arm64-apple-darwin'
binary-path:     '/Users/milena/Documents/DiTella/4to/TD V/tp1_td5/experimentacion'
relocations:
  - { offsetInCU: 0x33BA, offset: 0x33BA, size: 0x8, addend: 0x0, symName: __ZNSt3__16chronomiB8ue170006IxNS_5ratioILl1ELl1000000000EEExS3_EENS_11common_typeIJNS0_8durationIT_T0_EENS5_IT1_T2_EEEE4typeERKS8_RKSB_, symObjAddr: 0x5F78, symBinAddr: 0x10000A320, symSize: 0x70 }
  - { offsetInCU: 0x342F, offset: 0x342F, size: 0x8, addend: 0x0, symName: __ZNSt3__16chrono13duration_castB8ue170006INS0_8durationIxNS_5ratioILl1ELl1000000EEEEExNS3_ILl1ELl1000000000EEEEENS_9enable_ifIXsr13__is_durationIT_EE5valueES8_E4typeERKNS2_IT0_T1_EE, symObjAddr: 0x2484, symBinAddr: 0x10000682C, symSize: 0x30 }
  - { offsetInCU: 0x3476, offset: 0x3476, size: 0x8, addend: 0x0, symName: __ZNSt3__16chronomiB8ue170006INS0_12steady_clockENS0_8durationIxNS_5ratioILl1ELl1000000000EEEEES6_EENS_11common_typeIJT0_T1_EE4typeERKNS0_10time_pointIT_S8_EERKNSC_ISD_S9_EE, symObjAddr: 0x24B4, symBinAddr: 0x10000685C, symSize: 0x58 }
  - { offsetInCU: 0x983E, offset: 0x983E, size: 0x8, addend: 0x0, symName: __ZNSt3__124__put_character_sequenceB8ue170006IcNS_11char_traitsIcEEEERNS_13basic_ostreamIT_T0_EES7_PKS4_m, symObjAddr: 0xCEDC, symBinAddr: 0x100011284, symSize: 0x1EC }
  - { offsetInCU: 0xB3A2, offset: 0xB3A2, size: 0x8, addend: 0x0, symName: __ZNSt3__13maxB8ue170006IiEERKT_S3_S3_, symObjAddr: 0x568, symBinAddr: 0x100004910, symSize: 0x2C }
  - { offsetInCU: 0xB3E5, offset: 0xB3E5, size: 0x8, addend: 0x0, symName: __ZNSt3__13maxB8ue170006IiEET_St16initializer_listIS1_E, symObjAddr: 0xB54, symBinAddr: 0x100004EFC, symSize: 0x50 }
  - { offsetInCU: 0xB41A, offset: 0xB41A, size: 0x8, addend: 0x0, symName: __ZNSt3__1lsB8ue170006INS_11char_traitsIcEEEERNS_13basic_ostreamIcT_EES6_PKc, symObjAddr: 0x237C, symBinAddr: 0x100006724, symSize: 0x48 }
  - { offsetInCU: 0xB460, offset: 0xB460, size: 0x8, addend: 0x0, symName: __ZNSt3__14endlB8ue170006IcNS_11char_traitsIcEEEERNS_13basic_ostreamIT_T0_EES7_, symObjAddr: 0x23F0, symBinAddr: 0x100006798, symSize: 0x58 }
  - { offsetInCU: 0xB4A0, offset: 0xB4A0, size: 0x8, addend: 0x0, symName: __ZNSt3__13maxB8ue170006IiNS_6__lessIvvEEEERKT_S5_S5_T0_, symObjAddr: 0x5D28, symBinAddr: 0x10000A0D0, symSize: 0x54 }
  - { offsetInCU: 0xB570, offset: 0xB570, size: 0x8, addend: 0x0, symName: __ZNSt3__111max_elementB8ue170006IPKiNS_6__lessIvvEEEET_S5_S5_T0_, symObjAddr: 0x5DB0, symBinAddr: 0x10000A158, symSize: 0x30 }
  - { offsetInCU: 0xB5CA, offset: 0xB5CA, size: 0x8, addend: 0x0, symName: __ZNSt3__113__max_elementB8ue170006IRNS_6__lessIvvEEPKiEET0_S6_S6_T_, symObjAddr: 0x5E18, symBinAddr: 0x10000A1C0, symSize: 0x9C }
  - { offsetInCU: 0xB65C, offset: 0xB65C, size: 0x8, addend: 0x0, symName: __ZNSt3__122__make_exception_guardB8ue170006INS_6vectorIiNS_9allocatorIiEEE16__destroy_vectorEEENS_28__exception_guard_exceptionsIT_EES7_, symObjAddr: 0x62DC, symBinAddr: 0x10000A684, symSize: 0x40 }
  - { offsetInCU: 0xB691, offset: 0xB691, size: 0x8, addend: 0x0, symName: __ZNSt3__119__allocate_at_leastB8ue170006INS_9allocatorIiEEEENS_19__allocation_resultINS_16allocator_traitsIT_E7pointerEEERS5_m, symObjAddr: 0x65C4, symBinAddr: 0x10000A96C, symSize: 0x40 }
  - { offsetInCU: 0xB6D4, offset: 0xB6D4, size: 0x8, addend: 0x0, symName: __ZNSt3__13minB8ue170006ImEERKT_S3_S3_, symObjAddr: 0x6700, symBinAddr: 0x10000AAA8, symSize: 0x2C }
  - { offsetInCU: 0xB918, offset: 0xB918, size: 0x8, addend: 0x0, symName: __ZNSt3__13minB8ue170006ImNS_6__lessIvvEEEERKT_S5_S5_T0_, symObjAddr: 0x6770, symBinAddr: 0x10000AB18, symSize: 0x54 }
  - { offsetInCU: 0xB972, offset: 0xB972, size: 0x8, addend: 0x0, symName: __ZNSt3__120__throw_length_errorB8ue170006EPKc, symObjAddr: 0x6814, symBinAddr: 0x10000ABBC, symSize: 0x64 }
  - { offsetInCU: 0xB99C, offset: 0xB99C, size: 0x8, addend: 0x0, symName: __ZNSt3__117__libcpp_allocateB8ue170006Emm, symObjAddr: 0x6984, symBinAddr: 0x10000AD2C, symSize: 0x28 }
  - { offsetInCU: 0xB9D9, offset: 0xB9D9, size: 0x8, addend: 0x0, symName: __ZNSt3__121__libcpp_operator_newB8ue170006IJmEEEPvDpT_, symObjAddr: 0x69AC, symBinAddr: 0x10000AD54, symSize: 0x24 }
  - { offsetInCU: 0xBA12, offset: 0xBA12, size: 0x8, addend: 0x0, symName: __ZNSt3__112__to_addressB8ue170006IiEEPT_S2_, symObjAddr: 0x6AC8, symBinAddr: 0x10000AE70, symSize: 0x14 }
  - { offsetInCU: 0xBA47, offset: 0xBA47, size: 0x8, addend: 0x0, symName: __ZNSt3__130__uninitialized_allocator_copyB8ue170006INS_9allocatorIiEEPiS3_S3_EET2_RT_T0_T1_S4_, symObjAddr: 0x6B78, symBinAddr: 0x10000AF20, symSize: 0x80 }
  - { offsetInCU: 0xBAE4, offset: 0xBAE4, size: 0x8, addend: 0x0, symName: __ZNSt3__114__unwrap_rangeB8ue170006IPiS1_EENS_4pairIT0_S3_EET_S5_, symObjAddr: 0x6C68, symBinAddr: 0x10000B010, symSize: 0x60 }
  - { offsetInCU: 0xBB30, offset: 0xBB30, size: 0x8, addend: 0x0, symName: __ZNSt3__135__uninitialized_allocator_copy_implB8ue170006INS_9allocatorIiEEiiiLPv0EEEPT2_RT_PT0_S9_S5_, symObjAddr: 0x6CC8, symBinAddr: 0x10000B070, symSize: 0x38 }
  - { offsetInCU: 0xBBB1, offset: 0xBBB1, size: 0x8, addend: 0x0, symName: __ZNSt3__113__unwrap_iterB8ue170006IPiNS_18__unwrap_iter_implIS1_Lb1EEELi0EEEDTclsrT0_8__unwrapclsr3stdE7declvalIT_EEEES5_, symObjAddr: 0x6D00, symBinAddr: 0x10000B0A8, symSize: 0x24 }
  - { offsetInCU: 0xBBF5, offset: 0xBBF5, size: 0x8, addend: 0x0, symName: __ZNSt3__113__rewrap_iterB8ue170006IPiS1_NS_18__unwrap_iter_implIS1_Lb1EEEEET_S4_T0_, symObjAddr: 0x6D24, symBinAddr: 0x10000B0CC, symSize: 0x3C }
  - { offsetInCU: 0xBC4A, offset: 0xBC4A, size: 0x8, addend: 0x0, symName: __ZNSt3__19make_pairB8ue170006IPiS1_EENS_4pairINS_18__unwrap_ref_decayIT_E4typeENS3_IT0_E4typeEEEOS4_OS7_, symObjAddr: 0x6D60, symBinAddr: 0x10000B108, symSize: 0x38 }
  - { offsetInCU: 0xBD9C, offset: 0xBD9C, size: 0x8, addend: 0x0, symName: __ZNSt3__14copyB8ue170006IPiS1_EET0_T_S3_S2_, symObjAddr: 0x6E08, symBinAddr: 0x10000B1B0, symSize: 0x40 }
  - { offsetInCU: 0xBDF6, offset: 0xBDF6, size: 0x8, addend: 0x0, symName: __ZNSt3__16__copyB8ue170006INS_17_ClassicAlgPolicyEPiS2_S2_EENS_4pairIT0_T2_EES4_T1_S5_, symObjAddr: 0x6E48, symBinAddr: 0x10000B1F0, symSize: 0x44 }
  - { offsetInCU: 0xBE62, offset: 0xBE62, size: 0x8, addend: 0x0, symName: __ZNSt3__123__dispatch_copy_or_moveB8ue170006INS_17_ClassicAlgPolicyENS_11__copy_loopIS1_EENS_14__copy_trivialEPiS5_S5_EENS_4pairIT2_T4_EES7_T3_S8_, symObjAddr: 0x6E8C, symBinAddr: 0x10000B234, symSize: 0x44 }
  - { offsetInCU: 0xBEE0, offset: 0xBEE0, size: 0x8, addend: 0x0, symName: __ZNSt3__121__unwrap_and_dispatchB8ue170006INS_10__overloadINS_11__copy_loopINS_17_ClassicAlgPolicyEEENS_14__copy_trivialEEEPiS7_S7_Li0EEENS_4pairIT0_T2_EES9_T1_SA_, symObjAddr: 0x6ED0, symBinAddr: 0x10000B278, symSize: 0xB4 }
  - { offsetInCU: 0xBFF0, offset: 0xBFF0, size: 0x8, addend: 0x0, symName: __ZNSt3__114__rewrap_rangeB8ue170006IPiS1_EET_S2_T0_, symObjAddr: 0x6FCC, symBinAddr: 0x10000B374, symSize: 0x2C }
  - { offsetInCU: 0xC03C, offset: 0xC03C, size: 0x8, addend: 0x0, symName: __ZNSt3__119__copy_trivial_implB8ue170006IiiEENS_4pairIPT_PT0_EES3_S3_S5_, symObjAddr: 0x6FF8, symBinAddr: 0x10000B3A0, symSize: 0x80 }
  - { offsetInCU: 0xC0A4, offset: 0xC0A4, size: 0x8, addend: 0x0, symName: __ZNSt3__119__constexpr_memmoveB8ue170006IiiLi0EEEPT_S2_PT0_NS_15__element_countE, symObjAddr: 0x7078, symBinAddr: 0x10000B420, symSize: 0x64 }
  - { offsetInCU: 0xC112, offset: 0xC112, size: 0x8, addend: 0x0, symName: __ZNSt3__19make_pairB8ue170006IRPiS1_EENS_4pairINS_18__unwrap_ref_decayIT_E4typeENS4_IT0_E4typeEEEOS5_OS8_, symObjAddr: 0x70DC, symBinAddr: 0x10000B484, symSize: 0x38 }
  - { offsetInCU: 0xC1B4, offset: 0xC1B4, size: 0x8, addend: 0x0, symName: __ZNSt3__119__libcpp_deallocateB8ue170006EPvmm, symObjAddr: 0x7518, symBinAddr: 0x10000B8C0, symSize: 0x30 }
  - { offsetInCU: 0xC1FC, offset: 0xC1FC, size: 0x8, addend: 0x0, symName: __ZNSt3__127__do_deallocate_handle_sizeB8ue170006IJEEEvPvmDpT_, symObjAddr: 0x7548, symBinAddr: 0x10000B8F0, symSize: 0x28 }
  - { offsetInCU: 0xC23A, offset: 0xC23A, size: 0x8, addend: 0x0, symName: __ZNSt3__124__libcpp_operator_deleteB8ue170006IJPvEEEvDpT_, symObjAddr: 0x7570, symBinAddr: 0x10000B918, symSize: 0x24 }
  - { offsetInCU: 0xC26F, offset: 0xC26F, size: 0x8, addend: 0x0, symName: __ZNSt3__122__make_exception_guardB8ue170006INS_6vectorINS1_IiNS_9allocatorIiEEEENS2_IS4_EEE16__destroy_vectorEEENS_28__exception_guard_exceptionsIT_EES9_, symObjAddr: 0x79DC, symBinAddr: 0x10000BD84, symSize: 0x40 }
  - { offsetInCU: 0xC2A4, offset: 0xC2A4, size: 0x8, addend: 0x0, symName: __ZNSt3__119__allocate_at_leastB8ue170006INS_9allocatorINS_6vectorIiNS1_IiEEEEEEEENS_19__allocation_resultINS_16allocator_traitsIT_E7pointerEEERS8_m, symObjAddr: 0x7DD8, symBinAddr: 0x10000C180, symSize: 0x40 }
  - { offsetInCU: 0xC2E7, offset: 0xC2E7, size: 0x8, addend: 0x0, symName: __ZNSt3__112__to_addressB8ue170006INS_6vectorIiNS_9allocatorIiEEEEEEPT_S6_, symObjAddr: 0x8120, symBinAddr: 0x10000C4C8, symSize: 0x14 }
  - { offsetInCU: 0xC31C, offset: 0xC31C, size: 0x8, addend: 0x0, symName: __ZNSt3__122__make_exception_guardB8ue170006INS_6vectorINS1_INS1_IiNS_9allocatorIiEEEENS2_IS4_EEEENS2_IS6_EEE16__destroy_vectorEEENS_28__exception_guard_exceptionsIT_EESB_, symObjAddr: 0x8758, symBinAddr: 0x10000CB00, symSize: 0x40 }
  - { offsetInCU: 0xC351, offset: 0xC351, size: 0x8, addend: 0x0, symName: __ZNSt3__119__allocate_at_leastB8ue170006INS_9allocatorINS_6vectorINS2_IiNS1_IiEEEENS1_IS4_EEEEEEEENS_19__allocation_resultINS_16allocator_traitsIT_E7pointerEEERSA_m, symObjAddr: 0x8B54, symBinAddr: 0x10000CEFC, symSize: 0x40 }
  - { offsetInCU: 0xC394, offset: 0xC394, size: 0x8, addend: 0x0, symName: __ZNSt3__112__to_addressB8ue170006INS_6vectorINS1_IiNS_9allocatorIiEEEENS2_IS4_EEEEEEPT_S8_, symObjAddr: 0x8E9C, symBinAddr: 0x10000D244, symSize: 0x14 }
  - { offsetInCU: 0xC3C9, offset: 0xC3C9, size: 0x8, addend: 0x0, symName: __ZNSt3__130__uninitialized_allocator_copyB8ue170006INS_9allocatorINS_6vectorIiNS1_IiEEEEEEPS4_S6_S6_EET2_RT_T0_T1_S7_, symObjAddr: 0x92DC, symBinAddr: 0x10000D684, symSize: 0x80 }
  - { offsetInCU: 0xC466, offset: 0xC466, size: 0x8, addend: 0x0, symName: __ZNSt3__114__unwrap_rangeB8ue170006IPNS_6vectorIiNS_9allocatorIiEEEES5_EENS_4pairIT0_S7_EET_S9_, symObjAddr: 0x935C, symBinAddr: 0x10000D704, symSize: 0x60 }
  - { offsetInCU: 0xC4B2, offset: 0xC4B2, size: 0x8, addend: 0x0, symName: __ZNSt3__135__uninitialized_allocator_copy_implB8ue170006INS_9allocatorINS_6vectorIiNS1_IiEEEEEEPS4_S6_S6_EET2_RT_T0_T1_S7_, symObjAddr: 0x93BC, symBinAddr: 0x10000D764, symSize: 0xF4 }
  - { offsetInCU: 0xC550, offset: 0xC550, size: 0x8, addend: 0x0, symName: __ZNSt3__113__unwrap_iterB8ue170006IPNS_6vectorIiNS_9allocatorIiEEEENS_18__unwrap_iter_implIS5_Lb1EEELi0EEEDTclsrT0_8__unwrapclsr3stdE7declvalIT_EEEES9_, symObjAddr: 0x94B0, symBinAddr: 0x10000D858, symSize: 0x24 }
  - { offsetInCU: 0xC594, offset: 0xC594, size: 0x8, addend: 0x0, symName: __ZNSt3__113__rewrap_iterB8ue170006IPNS_6vectorIiNS_9allocatorIiEEEES5_NS_18__unwrap_iter_implIS5_Lb1EEEEET_S8_T0_, symObjAddr: 0x94D4, symBinAddr: 0x10000D87C, symSize: 0x3C }
  - { offsetInCU: 0xC5E9, offset: 0xC5E9, size: 0x8, addend: 0x0, symName: __ZNSt3__19make_pairB8ue170006IPNS_6vectorIiNS_9allocatorIiEEEES5_EENS_4pairINS_18__unwrap_ref_decayIT_E4typeENS7_IT0_E4typeEEEOS8_OSB_, symObjAddr: 0x9510, symBinAddr: 0x10000D8B8, symSize: 0x38 }
  - { offsetInCU: 0xC70C, offset: 0xC70C, size: 0x8, addend: 0x0, symName: __ZNSt3__122__make_exception_guardB8ue170006INS_29_AllocatorDestroyRangeReverseINS_9allocatorINS_6vectorIiNS2_IiEEEEEEPS5_EEEENS_28__exception_guard_exceptionsIT_EESA_, symObjAddr: 0x95B8, symBinAddr: 0x10000D960, symSize: 0x4C }
  - { offsetInCU: 0xC742, offset: 0xC742, size: 0x8, addend: 0x0, symName: __ZNSt3__119__allocator_destroyB8ue170006INS_9allocatorINS_6vectorIiNS1_IiEEEEEENS_16reverse_iteratorIPS4_EES8_EEvRT_T0_T1_, symObjAddr: 0x9848, symBinAddr: 0x10000DBF0, symSize: 0x70 }
  - { offsetInCU: 0xC7A5, offset: 0xC7A5, size: 0x8, addend: 0x0, symName: __ZNSt3__1neB8ue170006IPNS_6vectorIiNS_9allocatorIiEEEES5_EEbRKNS_16reverse_iteratorIT_EERKNS6_IT0_EE, symObjAddr: 0x98EC, symBinAddr: 0x10000DC94, symSize: 0x48 }
  - { offsetInCU: 0xC7F1, offset: 0xC7F1, size: 0x8, addend: 0x0, symName: __ZNSt3__112__to_addressB8ue170006INS_16reverse_iteratorIPNS_6vectorIiNS_9allocatorIiEEEEEEvEEu7__decayIDTclsr19__to_address_helperIT_EE6__callclsr3stdE7declvalIRKS8_EEEEESA_, symObjAddr: 0x9934, symBinAddr: 0x10000DCDC, symSize: 0x24 }
  - { offsetInCU: 0xC8A3, offset: 0xC8A3, size: 0x8, addend: 0x0, symName: __ZNSt3__122__make_exception_guardB8ue170006INS_6vectorINS1_INS1_INS1_IiNS_9allocatorIiEEEENS2_IS4_EEEENS2_IS6_EEEENS2_IS8_EEE16__destroy_vectorEEENS_28__exception_guard_exceptionsIT_EESD_, symObjAddr: 0x9F8C, symBinAddr: 0x10000E334, symSize: 0x40 }
  - { offsetInCU: 0xC8D8, offset: 0xC8D8, size: 0x8, addend: 0x0, symName: __ZNSt3__119__allocate_at_leastB8ue170006INS_9allocatorINS_6vectorINS2_INS2_IiNS1_IiEEEENS1_IS4_EEEENS1_IS6_EEEEEEEENS_19__allocation_resultINS_16allocator_traitsIT_E7pointerEEERSC_m, symObjAddr: 0xA388, symBinAddr: 0x10000E730, symSize: 0x40 }
  - { offsetInCU: 0xC91B, offset: 0xC91B, size: 0x8, addend: 0x0, symName: __ZNSt3__112__to_addressB8ue170006INS_6vectorINS1_INS1_IiNS_9allocatorIiEEEENS2_IS4_EEEENS2_IS6_EEEEEEPT_SA_, symObjAddr: 0xA6D0, symBinAddr: 0x10000EA78, symSize: 0x14 }
  - { offsetInCU: 0xC950, offset: 0xC950, size: 0x8, addend: 0x0, symName: __ZNSt3__130__uninitialized_allocator_copyB8ue170006INS_9allocatorINS_6vectorINS2_IiNS1_IiEEEENS1_IS4_EEEEEEPS6_S8_S8_EET2_RT_T0_T1_S9_, symObjAddr: 0xAB10, symBinAddr: 0x10000EEB8, symSize: 0x80 }
  - { offsetInCU: 0xC9ED, offset: 0xC9ED, size: 0x8, addend: 0x0, symName: __ZNSt3__114__unwrap_rangeB8ue170006IPNS_6vectorINS1_IiNS_9allocatorIiEEEENS2_IS4_EEEES7_EENS_4pairIT0_S9_EET_SB_, symObjAddr: 0xAB90, symBinAddr: 0x10000EF38, symSize: 0x60 }
  - { offsetInCU: 0xCA39, offset: 0xCA39, size: 0x8, addend: 0x0, symName: __ZNSt3__135__uninitialized_allocator_copy_implB8ue170006INS_9allocatorINS_6vectorINS2_IiNS1_IiEEEENS1_IS4_EEEEEEPS6_S8_S8_EET2_RT_T0_T1_S9_, symObjAddr: 0xABF0, symBinAddr: 0x10000EF98, symSize: 0xF4 }
  - { offsetInCU: 0xCAD7, offset: 0xCAD7, size: 0x8, addend: 0x0, symName: __ZNSt3__113__unwrap_iterB8ue170006IPNS_6vectorINS1_IiNS_9allocatorIiEEEENS2_IS4_EEEENS_18__unwrap_iter_implIS7_Lb1EEELi0EEEDTclsrT0_8__unwrapclsr3stdE7declvalIT_EEEESB_, symObjAddr: 0xACE4, symBinAddr: 0x10000F08C, symSize: 0x24 }
  - { offsetInCU: 0xCB1B, offset: 0xCB1B, size: 0x8, addend: 0x0, symName: __ZNSt3__113__rewrap_iterB8ue170006IPNS_6vectorINS1_IiNS_9allocatorIiEEEENS2_IS4_EEEES7_NS_18__unwrap_iter_implIS7_Lb1EEEEET_SA_T0_, symObjAddr: 0xAD08, symBinAddr: 0x10000F0B0, symSize: 0x3C }
  - { offsetInCU: 0xCB70, offset: 0xCB70, size: 0x8, addend: 0x0, symName: __ZNSt3__19make_pairB8ue170006IPNS_6vectorINS1_IiNS_9allocatorIiEEEENS2_IS4_EEEES7_EENS_4pairINS_18__unwrap_ref_decayIT_E4typeENS9_IT0_E4typeEEEOSA_OSD_, symObjAddr: 0xAD44, symBinAddr: 0x10000F0EC, symSize: 0x38 }
  - { offsetInCU: 0xCC93, offset: 0xCC93, size: 0x8, addend: 0x0, symName: __ZNSt3__122__make_exception_guardB8ue170006INS_29_AllocatorDestroyRangeReverseINS_9allocatorINS_6vectorINS3_IiNS2_IiEEEENS2_IS5_EEEEEEPS7_EEEENS_28__exception_guard_exceptionsIT_EESC_, symObjAddr: 0xADEC, symBinAddr: 0x10000F194, symSize: 0x4C }
  - { offsetInCU: 0xCCC9, offset: 0xCCC9, size: 0x8, addend: 0x0, symName: __ZNSt3__119__allocator_destroyB8ue170006INS_9allocatorINS_6vectorINS2_IiNS1_IiEEEENS1_IS4_EEEEEENS_16reverse_iteratorIPS6_EESA_EEvRT_T0_T1_, symObjAddr: 0xB07C, symBinAddr: 0x10000F424, symSize: 0x70 }
  - { offsetInCU: 0xCD2C, offset: 0xCD2C, size: 0x8, addend: 0x0, symName: __ZNSt3__1neB8ue170006IPNS_6vectorINS1_IiNS_9allocatorIiEEEENS2_IS4_EEEES7_EEbRKNS_16reverse_iteratorIT_EERKNS8_IT0_EE, symObjAddr: 0xB120, symBinAddr: 0x10000F4C8, symSize: 0x48 }
  - { offsetInCU: 0xCD78, offset: 0xCD78, size: 0x8, addend: 0x0, symName: __ZNSt3__112__to_addressB8ue170006INS_16reverse_iteratorIPNS_6vectorINS2_IiNS_9allocatorIiEEEENS3_IS5_EEEEEEvEEu7__decayIDTclsr19__to_address_helperIT_EE6__callclsr3stdE7declvalIRKSA_EEEEESC_, symObjAddr: 0xB168, symBinAddr: 0x10000F510, symSize: 0x24 }
  - { offsetInCU: 0xCE2A, offset: 0xCE2A, size: 0x8, addend: 0x0, symName: __ZNSt3__122__make_exception_guardB8ue170006INS_6vectorINS1_INS1_INS1_INS1_IiNS_9allocatorIiEEEENS2_IS4_EEEENS2_IS6_EEEENS2_IS8_EEEENS2_ISA_EEE16__destroy_vectorEEENS_28__exception_guard_exceptionsIT_EESF_, symObjAddr: 0xB7C0, symBinAddr: 0x10000FB68, symSize: 0x40 }
  - { offsetInCU: 0xCE5F, offset: 0xCE5F, size: 0x8, addend: 0x0, symName: __ZNSt3__119__allocate_at_leastB8ue170006INS_9allocatorINS_6vectorINS2_INS2_INS2_IiNS1_IiEEEENS1_IS4_EEEENS1_IS6_EEEENS1_IS8_EEEEEEEENS_19__allocation_resultINS_16allocator_traitsIT_E7pointerEEERSE_m, symObjAddr: 0xBBBC, symBinAddr: 0x10000FF64, symSize: 0x40 }
  - { offsetInCU: 0xCEA2, offset: 0xCEA2, size: 0x8, addend: 0x0, symName: __ZNSt3__112__to_addressB8ue170006INS_6vectorINS1_INS1_INS1_IiNS_9allocatorIiEEEENS2_IS4_EEEENS2_IS6_EEEENS2_IS8_EEEEEEPT_SC_, symObjAddr: 0xBF04, symBinAddr: 0x1000102AC, symSize: 0x14 }
  - { offsetInCU: 0xCED7, offset: 0xCED7, size: 0x8, addend: 0x0, symName: __ZNSt3__130__uninitialized_allocator_copyB8ue170006INS_9allocatorINS_6vectorINS2_INS2_IiNS1_IiEEEENS1_IS4_EEEENS1_IS6_EEEEEEPS8_SA_SA_EET2_RT_T0_T1_SB_, symObjAddr: 0xC344, symBinAddr: 0x1000106EC, symSize: 0x80 }
  - { offsetInCU: 0xCF74, offset: 0xCF74, size: 0x8, addend: 0x0, symName: __ZNSt3__114__unwrap_rangeB8ue170006IPNS_6vectorINS1_INS1_IiNS_9allocatorIiEEEENS2_IS4_EEEENS2_IS6_EEEES9_EENS_4pairIT0_SB_EET_SD_, symObjAddr: 0xC3C4, symBinAddr: 0x10001076C, symSize: 0x60 }
  - { offsetInCU: 0xCFC0, offset: 0xCFC0, size: 0x8, addend: 0x0, symName: __ZNSt3__135__uninitialized_allocator_copy_implB8ue170006INS_9allocatorINS_6vectorINS2_INS2_IiNS1_IiEEEENS1_IS4_EEEENS1_IS6_EEEEEEPS8_SA_SA_EET2_RT_T0_T1_SB_, symObjAddr: 0xC424, symBinAddr: 0x1000107CC, symSize: 0xF4 }
  - { offsetInCU: 0xD05E, offset: 0xD05E, size: 0x8, addend: 0x0, symName: __ZNSt3__113__unwrap_iterB8ue170006IPNS_6vectorINS1_INS1_IiNS_9allocatorIiEEEENS2_IS4_EEEENS2_IS6_EEEENS_18__unwrap_iter_implIS9_Lb1EEELi0EEEDTclsrT0_8__unwrapclsr3stdE7declvalIT_EEEESD_, symObjAddr: 0xC518, symBinAddr: 0x1000108C0, symSize: 0x24 }
  - { offsetInCU: 0xD0A2, offset: 0xD0A2, size: 0x8, addend: 0x0, symName: __ZNSt3__113__rewrap_iterB8ue170006IPNS_6vectorINS1_INS1_IiNS_9allocatorIiEEEENS2_IS4_EEEENS2_IS6_EEEES9_NS_18__unwrap_iter_implIS9_Lb1EEEEET_SC_T0_, symObjAddr: 0xC53C, symBinAddr: 0x1000108E4, symSize: 0x3C }
  - { offsetInCU: 0xD0F7, offset: 0xD0F7, size: 0x8, addend: 0x0, symName: __ZNSt3__19make_pairB8ue170006IPNS_6vectorINS1_INS1_IiNS_9allocatorIiEEEENS2_IS4_EEEENS2_IS6_EEEES9_EENS_4pairINS_18__unwrap_ref_decayIT_E4typeENSB_IT0_E4typeEEEOSC_OSF_, symObjAddr: 0xC578, symBinAddr: 0x100010920, symSize: 0x38 }
  - { offsetInCU: 0xD21A, offset: 0xD21A, size: 0x8, addend: 0x0, symName: __ZNSt3__122__make_exception_guardB8ue170006INS_29_AllocatorDestroyRangeReverseINS_9allocatorINS_6vectorINS3_INS3_IiNS2_IiEEEENS2_IS5_EEEENS2_IS7_EEEEEEPS9_EEEENS_28__exception_guard_exceptionsIT_EESE_, symObjAddr: 0xC620, symBinAddr: 0x1000109C8, symSize: 0x4C }
  - { offsetInCU: 0xD250, offset: 0xD250, size: 0x8, addend: 0x0, symName: __ZNSt3__119__allocator_destroyB8ue170006INS_9allocatorINS_6vectorINS2_INS2_IiNS1_IiEEEENS1_IS4_EEEENS1_IS6_EEEEEENS_16reverse_iteratorIPS8_EESC_EEvRT_T0_T1_, symObjAddr: 0xC8B0, symBinAddr: 0x100010C58, symSize: 0x70 }
  - { offsetInCU: 0xD2B3, offset: 0xD2B3, size: 0x8, addend: 0x0, symName: __ZNSt3__1neB8ue170006IPNS_6vectorINS1_INS1_IiNS_9allocatorIiEEEENS2_IS4_EEEENS2_IS6_EEEES9_EEbRKNS_16reverse_iteratorIT_EERKNSA_IT0_EE, symObjAddr: 0xC954, symBinAddr: 0x100010CFC, symSize: 0x48 }
  - { offsetInCU: 0xD2FF, offset: 0xD2FF, size: 0x8, addend: 0x0, symName: __ZNSt3__112__to_addressB8ue170006INS_16reverse_iteratorIPNS_6vectorINS2_INS2_IiNS_9allocatorIiEEEENS3_IS5_EEEENS3_IS7_EEEEEEvEEu7__decayIDTclsr19__to_address_helperIT_EE6__callclsr3stdE7declvalIRKSC_EEEEESE_, symObjAddr: 0xC99C, symBinAddr: 0x100010D44, symSize: 0x24 }
  - { offsetInCU: 0xD3B1, offset: 0xD3B1, size: 0x8, addend: 0x0, symName: __ZNSt3__116__pad_and_outputB8ue170006IcNS_11char_traitsIcEEEENS_19ostreambuf_iteratorIT_T0_EES6_PKS4_S8_S8_RNS_8ios_baseES4_, symObjAddr: 0xD118, symBinAddr: 0x1000114C0, symSize: 0x240 }
  - { offsetInCU: 0xD480, offset: 0xD480, size: 0x8, addend: 0x0, symName: __ZNSt3__112__to_addressB8ue170006IKcEEPT_S3_, symObjAddr: 0xD680, symBinAddr: 0x100011A28, symSize: 0x14 }
  - { offsetInCU: 0xD4E8, offset: 0xD4E8, size: 0x8, addend: 0x0, symName: __ZNSt3__19use_facetB8ue170006INS_5ctypeIcEEEERKT_RKNS_6localeE, symObjAddr: 0xD900, symBinAddr: 0x100011CA8, symSize: 0x2C }
  - { offsetInCU: 0xD9B5, offset: 0xD9B5, size: 0x8, addend: 0x0, symName: __ZNSt3__118__constexpr_strlenB8ue170006EPKc, symObjAddr: 0xD998, symBinAddr: 0x100011D40, symSize: 0x24 }
  - { offsetInCU: 0xD9E1, offset: 0xD9E1, size: 0x8, addend: 0x0, symName: __ZNSt3__130__uninitialized_allocator_copyB8ue170006INS_9allocatorIiEEPKiS4_PiEET2_RT_T0_T1_S6_, symObjAddr: 0xDB80, symBinAddr: 0x100011F28, symSize: 0x80 }
  - { offsetInCU: 0xDA7E, offset: 0xDA7E, size: 0x8, addend: 0x0, symName: __ZNSt3__114__unwrap_rangeB8ue170006IPKiS2_EENS_4pairIT0_S4_EET_S6_, symObjAddr: 0xDC00, symBinAddr: 0x100011FA8, symSize: 0x60 }
  - { offsetInCU: 0xDACA, offset: 0xDACA, size: 0x8, addend: 0x0, symName: __ZNSt3__135__uninitialized_allocator_copy_implB8ue170006INS_9allocatorIiEEKiiiLPv0EEEPT2_RT_PT0_SA_S6_, symObjAddr: 0xDC60, symBinAddr: 0x100012008, symSize: 0x38 }
  - { offsetInCU: 0xDB4B, offset: 0xDB4B, size: 0x8, addend: 0x0, symName: __ZNSt3__19make_pairB8ue170006IPKiS2_EENS_4pairINS_18__unwrap_ref_decayIT_E4typeENS4_IT0_E4typeEEEOS5_OS8_, symObjAddr: 0xDC98, symBinAddr: 0x100012040, symSize: 0x38 }
  - { offsetInCU: 0xDB9A, offset: 0xDB9A, size: 0x8, addend: 0x0, symName: __ZNSt3__113__unwrap_iterB8ue170006IPKiNS_18__unwrap_iter_implIS2_Lb1EEELi0EEEDTclsrT0_8__unwrapclsr3stdE7declvalIT_EEEES6_, symObjAddr: 0xDCD0, symBinAddr: 0x100012078, symSize: 0x24 }
  - { offsetInCU: 0xDD05, offset: 0xDD05, size: 0x8, addend: 0x0, symName: __ZNSt3__112__to_addressB8ue170006IKiEEPT_S3_, symObjAddr: 0xDD88, symBinAddr: 0x100012130, symSize: 0x14 }
  - { offsetInCU: 0xDD3A, offset: 0xDD3A, size: 0x8, addend: 0x0, symName: __ZNSt3__14copyB8ue170006IPKiPiEET0_T_S5_S4_, symObjAddr: 0xDD9C, symBinAddr: 0x100012144, symSize: 0x40 }
  - { offsetInCU: 0xDD94, offset: 0xDD94, size: 0x8, addend: 0x0, symName: __ZNSt3__16__copyB8ue170006INS_17_ClassicAlgPolicyEPKiS3_PiEENS_4pairIT0_T2_EES6_T1_S7_, symObjAddr: 0xDDDC, symBinAddr: 0x100012184, symSize: 0x44 }
  - { offsetInCU: 0xDE00, offset: 0xDE00, size: 0x8, addend: 0x0, symName: __ZNSt3__123__dispatch_copy_or_moveB8ue170006INS_17_ClassicAlgPolicyENS_11__copy_loopIS1_EENS_14__copy_trivialEPKiS6_PiEENS_4pairIT2_T4_EES9_T3_SA_, symObjAddr: 0xDE20, symBinAddr: 0x1000121C8, symSize: 0x44 }
  - { offsetInCU: 0xDE7E, offset: 0xDE7E, size: 0x8, addend: 0x0, symName: __ZNSt3__121__unwrap_and_dispatchB8ue170006INS_10__overloadINS_11__copy_loopINS_17_ClassicAlgPolicyEEENS_14__copy_trivialEEEPKiS8_PiLi0EEENS_4pairIT0_T2_EESB_T1_SC_, symObjAddr: 0xDE64, symBinAddr: 0x10001220C, symSize: 0xB4 }
  - { offsetInCU: 0xE00F, offset: 0xE00F, size: 0x8, addend: 0x0, symName: __ZNSt3__19make_pairB8ue170006IPKiPiEENS_4pairINS_18__unwrap_ref_decayIT_E4typeENS5_IT0_E4typeEEEOS6_OS9_, symObjAddr: 0xDF60, symBinAddr: 0x100012308, symSize: 0x38 }
  - { offsetInCU: 0xE05E, offset: 0xE05E, size: 0x8, addend: 0x0, symName: __ZNSt3__114__rewrap_rangeB8ue170006IPKiS2_EET_S3_T0_, symObjAddr: 0xDF98, symBinAddr: 0x100012340, symSize: 0x2C }
  - { offsetInCU: 0xE0AA, offset: 0xE0AA, size: 0x8, addend: 0x0, symName: __ZNSt3__119__copy_trivial_implB8ue170006IKiiEENS_4pairIPT_PT0_EES4_S4_S6_, symObjAddr: 0xDFC4, symBinAddr: 0x10001236C, symSize: 0x80 }
  - { offsetInCU: 0xE112, offset: 0xE112, size: 0x8, addend: 0x0, symName: __ZNSt3__119__constexpr_memmoveB8ue170006IiKiLi0EEEPT_S3_PT0_NS_15__element_countE, symObjAddr: 0xE044, symBinAddr: 0x1000123EC, symSize: 0x64 }
  - { offsetInCU: 0xE180, offset: 0xE180, size: 0x8, addend: 0x0, symName: __ZNSt3__19make_pairB8ue170006IRPKiPiEENS_4pairINS_18__unwrap_ref_decayIT_E4typeENS6_IT0_E4typeEEEOS7_OSA_, symObjAddr: 0xE0A8, symBinAddr: 0x100012450, symSize: 0x38 }
  - { offsetInCU: 0xE1CF, offset: 0xE1CF, size: 0x8, addend: 0x0, symName: __ZNSt3__113__rewrap_iterB8ue170006IPKiS2_NS_18__unwrap_iter_implIS2_Lb1EEEEET_S5_T0_, symObjAddr: 0xE1C0, symBinAddr: 0x100012568, symSize: 0x3C }
  - { offsetInCU: 0xE84A, offset: 0xE84A, size: 0x8, addend: 0x0, symName: __ZSt28__throw_bad_array_new_lengthB8ue170006v, symObjAddr: 0x6950, symBinAddr: 0x10000ACF8, symSize: 0x34 }
  - { offsetInCU: 0xEB86, offset: 0xEB86, size: 0x8, addend: 0x0, symName: __ZNKSt3__16chrono15__duration_castINS0_8durationIxNS_5ratioILl1ELl1000000000EEEEENS2_IxNS3_ILl1ELl1000000EEEEENS3_ILl1ELl1000EEELb1ELb0EEclB8ue170006ERKS5_, symObjAddr: 0x5EB4, symBinAddr: 0x10000A25C, symSize: 0x48 }
  - { offsetInCU: 0x11664, offset: 0x11664, size: 0x8, addend: 0x0, symName: __Z18calcular_beneficioRKNSt3__16vectorINS0_IiNS_9allocatorIiEEEENS1_IS3_EEEERKS3_, symObjAddr: 0x0, symBinAddr: 0x1000043A8, symSize: 0xF8 }
  - { offsetInCU: 0x11701, offset: 0x11701, size: 0x8, addend: 0x0, symName: __ZNKSt3__16vectorINS0_IiNS_9allocatorIiEEEENS1_IS3_EEE4sizeB8ue170006Ev, symObjAddr: 0xF8, symBinAddr: 0x1000044A0, symSize: 0x28 }
  - { offsetInCU: 0x11726, offset: 0x11726, size: 0x8, addend: 0x0, symName: __ZNKSt3__16vectorINS0_IiNS_9allocatorIiEEEENS1_IS3_EEEixB8ue170006Em, symObjAddr: 0x120, symBinAddr: 0x1000044C8, symSize: 0x2C }
  - { offsetInCU: 0x1175C, offset: 0x1175C, size: 0x8, addend: 0x0, symName: __ZNKSt3__16vectorIiNS_9allocatorIiEEE4sizeB8ue170006Ev, symObjAddr: 0x14C, symBinAddr: 0x1000044F4, symSize: 0x28 }
  - { offsetInCU: 0x11781, offset: 0x11781, size: 0x8, addend: 0x0, symName: __ZNKSt3__16vectorIiNS_9allocatorIiEEEixB8ue170006Em, symObjAddr: 0x174, symBinAddr: 0x10000451C, symSize: 0x24 }
  - { offsetInCU: 0x117B6, offset: 0x117B6, size: 0x8, addend: 0x0, symName: __Z9es_validaRKNSt3__16vectorINS0_IiNS_9allocatorIiEEEENS1_IS3_EEEERKS3_S3_, symObjAddr: 0x198, symBinAddr: 0x100004540, symSize: 0x17C }
  - { offsetInCU: 0x11854, offset: 0x11854, size: 0x8, addend: 0x0, symName: __ZNSt3__16vectorIiNS_9allocatorIiEEEixB8ue170006Em, symObjAddr: 0x314, symBinAddr: 0x1000046BC, symSize: 0x24 }
  - { offsetInCU: 0x1188A, offset: 0x1188A, size: 0x8, addend: 0x0, symName: __Z12fuerza_brutammRNSt3__16vectorIiNS_9allocatorIiEEEES4_S4_RNS0_IS3_NS1_IS3_EEEERi, symObjAddr: 0x338, symBinAddr: 0x1000046E0, symSize: 0x1D0 }
  - { offsetInCU: 0x1195E, offset: 0x1195E, size: 0x8, addend: 0x0, symName: __ZNSt3__16vectorIiNS_9allocatorIiEEEC1ERKS3_, symObjAddr: 0x508, symBinAddr: 0x1000048B0, symSize: 0x34 }
  - { offsetInCU: 0x11998, offset: 0x11998, size: 0x8, addend: 0x0, symName: __ZNSt3__16vectorIiNS_9allocatorIiEEED1B8ue170006Ev, symObjAddr: 0x53C, symBinAddr: 0x1000048E4, symSize: 0x2C }
  - { offsetInCU: 0x119C1, offset: 0x119C1, size: 0x8, addend: 0x0, symName: __ZNSt3__16vectorINS0_IiNS_9allocatorIiEEEENS1_IS3_EEEixB8ue170006Em, symObjAddr: 0x594, symBinAddr: 0x10000493C, symSize: 0x2C }
  - { offsetInCU: 0x119F7, offset: 0x119F7, size: 0x8, addend: 0x0, symName: __Z12backtrackingmmRNSt3__16vectorIiNS_9allocatorIiEEEES4_S4_RNS0_IS3_NS1_IS3_EEEERi, symObjAddr: 0x5C0, symBinAddr: 0x100004968, symSize: 0x20C }
  - { offsetInCU: 0x11ACA, offset: 0x11ACA, size: 0x8, addend: 0x0, symName: __Z15prog_dinamica_2mmRNSt3__16vectorIiNS_9allocatorIiEEEES4_iiRNS0_IS3_NS1_IS3_EEEERiRNS0_IS6_NS1_IS6_EEEE, symObjAddr: 0x7CC, symBinAddr: 0x100004B74, symSize: 0x35C }
  - { offsetInCU: 0x11BA9, offset: 0x11BA9, size: 0x8, addend: 0x0, symName: __ZNSt3__16vectorINS0_INS0_IiNS_9allocatorIiEEEENS1_IS3_EEEENS1_IS5_EEEixB8ue170006Em, symObjAddr: 0xB28, symBinAddr: 0x100004ED0, symSize: 0x2C }
  - { offsetInCU: 0x11BDE, offset: 0x11BDE, size: 0x8, addend: 0x0, symName: __Z15prog_dinamica_3mmRNSt3__16vectorIiNS_9allocatorIiEEEES4_iiiRNS0_IS3_NS1_IS3_EEEERiRNS0_INS0_IS6_NS1_IS6_EEEENS1_ISA_EEEE, symObjAddr: 0xBA4, symBinAddr: 0x100004F4C, symSize: 0x474 }
  - { offsetInCU: 0x11CDC, offset: 0x11CDC, size: 0x8, addend: 0x0, symName: __ZNSt3__16vectorINS0_INS0_INS0_IiNS_9allocatorIiEEEENS1_IS3_EEEENS1_IS5_EEEENS1_IS7_EEEixB8ue170006Em, symObjAddr: 0x1018, symBinAddr: 0x1000053C0, symSize: 0x2C }
  - { offsetInCU: 0x11D11, offset: 0x11D11, size: 0x8, addend: 0x0, symName: __Z15prog_dinamica_4mmRNSt3__16vectorIiNS_9allocatorIiEEEES4_iiiiRNS0_IS3_NS1_IS3_EEEERiRNS0_INS0_INS0_IS6_NS1_IS6_EEEENS1_ISA_EEEENS1_ISC_EEEE, symObjAddr: 0x1044, symBinAddr: 0x1000053EC, symSize: 0x5A4 }
  - { offsetInCU: 0x11E31, offset: 0x11E31, size: 0x8, addend: 0x0, symName: __ZNSt3__16vectorINS0_INS0_INS0_INS0_IiNS_9allocatorIiEEEENS1_IS3_EEEENS1_IS5_EEEENS1_IS7_EEEENS1_IS9_EEEixB8ue170006Em, symObjAddr: 0x15E8, symBinAddr: 0x100005990, symSize: 0x2C }
  - { offsetInCU: 0x11E66, offset: 0x11E66, size: 0x8, addend: 0x0, symName: __Z13prog_dinamicaiiRNSt3__16vectorIiNS_9allocatorIiEEEES4_S3_RNS0_IS3_NS1_IS3_EEEERi, symObjAddr: 0x1614, symBinAddr: 0x1000059BC, symSize: 0x6BC }
  - { offsetInCU: 0x11F33, offset: 0x11F33, size: 0x8, addend: 0x0, symName: __ZNSt3__16vectorIiNS_9allocatorIiEEEC1EmRKi, symObjAddr: 0x1CD0, symBinAddr: 0x100006078, symSize: 0x3C }
  - { offsetInCU: 0x11F7C, offset: 0x11F7C, size: 0x8, addend: 0x0, symName: __ZNSt3__16vectorINS0_IiNS_9allocatorIiEEEENS1_IS3_EEEC1EmRKS3_, symObjAddr: 0x1D0C, symBinAddr: 0x1000060B4, symSize: 0x3C }
  - { offsetInCU: 0x11FC5, offset: 0x11FC5, size: 0x8, addend: 0x0, symName: __ZNSt3__16vectorINS0_INS0_IiNS_9allocatorIiEEEENS1_IS3_EEEENS1_IS5_EEEC1EmRKS5_, symObjAddr: 0x1D48, symBinAddr: 0x1000060F0, symSize: 0x3C }
  - { offsetInCU: 0x1200E, offset: 0x1200E, size: 0x8, addend: 0x0, symName: __ZNSt3__16vectorINS0_IiNS_9allocatorIiEEEENS1_IS3_EEED1B8ue170006Ev, symObjAddr: 0x1D84, symBinAddr: 0x10000612C, symSize: 0x2C }
  - { offsetInCU: 0x12037, offset: 0x12037, size: 0x8, addend: 0x0, symName: __ZNSt3__16vectorINS0_INS0_IiNS_9allocatorIiEEEENS1_IS3_EEEENS1_IS5_EEED1B8ue170006Ev, symObjAddr: 0x1DB0, symBinAddr: 0x100006158, symSize: 0x2C }
  - { offsetInCU: 0x12060, offset: 0x12060, size: 0x8, addend: 0x0, symName: __ZNSt3__16vectorINS0_INS0_INS0_IiNS_9allocatorIiEEEENS1_IS3_EEEENS1_IS5_EEEENS1_IS7_EEEC1EmRKS7_, symObjAddr: 0x1DDC, symBinAddr: 0x100006184, symSize: 0x3C }
  - { offsetInCU: 0x120A9, offset: 0x120A9, size: 0x8, addend: 0x0, symName: __ZNSt3__16vectorINS0_INS0_INS0_IiNS_9allocatorIiEEEENS1_IS3_EEEENS1_IS5_EEEENS1_IS7_EEED1B8ue170006Ev, symObjAddr: 0x1E18, symBinAddr: 0x1000061C0, symSize: 0x2C }
  - { offsetInCU: 0x120D2, offset: 0x120D2, size: 0x8, addend: 0x0, symName: __ZNSt3__16vectorINS0_INS0_INS0_INS0_IiNS_9allocatorIiEEEENS1_IS3_EEEENS1_IS5_EEEENS1_IS7_EEEENS1_IS9_EEEC1EmRKS9_, symObjAddr: 0x1E44, symBinAddr: 0x1000061EC, symSize: 0x3C }
  - { offsetInCU: 0x1211B, offset: 0x1211B, size: 0x8, addend: 0x0, symName: __ZNSt3__16vectorINS0_INS0_INS0_INS0_IiNS_9allocatorIiEEEENS1_IS3_EEEENS1_IS5_EEEENS1_IS7_EEEENS1_IS9_EEED1B8ue170006Ev, symObjAddr: 0x1E80, symBinAddr: 0x100006228, symSize: 0x2C }
  - { offsetInCU: 0x12144, offset: 0x12144, size: 0x8, addend: 0x0, symName: __Z14test_ejemplo_1v, symObjAddr: 0x1EAC, symBinAddr: 0x100006254, symSize: 0x4D0 }
  - { offsetInCU: 0x12267, offset: 0x12267, size: 0x8, addend: 0x0, symName: __ZNSt3__113basic_ostreamIcNS_11char_traitsIcEEElsB8ue170006EPFRS3_S4_E, symObjAddr: 0x23C4, symBinAddr: 0x10000676C, symSize: 0x2C }
  - { offsetInCU: 0x1229A, offset: 0x1229A, size: 0x8, addend: 0x0, symName: __ZNSt3__16vectorIiNS_9allocatorIiEEEC1B8ue170006ESt16initializer_listIiE, symObjAddr: 0x2448, symBinAddr: 0x1000067F0, symSize: 0x3C }
  - { offsetInCU: 0x122D4, offset: 0x122D4, size: 0x8, addend: 0x0, symName: __ZNKSt3__16chrono8durationIxNS_5ratioILl1ELl1000000EEEE5countB8ue170006Ev, symObjAddr: 0x250C, symBinAddr: 0x1000068B4, symSize: 0x18 }
  - { offsetInCU: 0x122F9, offset: 0x122F9, size: 0x8, addend: 0x0, symName: __Z14test_ejemplo_2v, symObjAddr: 0x2524, symBinAddr: 0x1000068CC, symSize: 0x4D4 }
  - { offsetInCU: 0x1241D, offset: 0x1241D, size: 0x8, addend: 0x0, symName: __Z14test_ejemplo_3v, symObjAddr: 0x29F8, symBinAddr: 0x100006DA0, symSize: 0x4C8 }
  - { offsetInCU: 0x12541, offset: 0x12541, size: 0x8, addend: 0x0, symName: __Z31test_2_maquinas_vs_backtrackingv, symObjAddr: 0x2EC0, symBinAddr: 0x100007268, symSize: 0x578 }
  - { offsetInCU: 0x12601, offset: 0x12601, size: 0x8, addend: 0x0, symName: __Z31test_3_maquinas_vs_backtrackingv, symObjAddr: 0x3438, symBinAddr: 0x1000077E0, symSize: 0x5F8 }
  - { offsetInCU: 0x126C1, offset: 0x126C1, size: 0x8, addend: 0x0, symName: __Z31test_4_maquinas_vs_backtrackingv, symObjAddr: 0x3A30, symBinAddr: 0x100007DD8, symSize: 0x678 }
  - { offsetInCU: 0x12781, offset: 0x12781, size: 0x8, addend: 0x0, symName: __Z34test_algoritmos_con_mas_instanciasv, symObjAddr: 0x40A8, symBinAddr: 0x100008450, symSize: 0x754 }
  - { offsetInCU: 0x128AC, offset: 0x128AC, size: 0x8, addend: 0x0, symName: __ZNSt3__16vectorIiNS_9allocatorIiEEEC1Em, symObjAddr: 0x47FC, symBinAddr: 0x100008BA4, symSize: 0x34 }
  - { offsetInCU: 0x128E5, offset: 0x128E5, size: 0x8, addend: 0x0, symName: __Z22test_4_maquinas_gpu500v, symObjAddr: 0x4830, symBinAddr: 0x100008BD8, symSize: 0x57C }
  - { offsetInCU: 0x129B0, offset: 0x129B0, size: 0x8, addend: 0x0, symName: __Z15test_lenguajes1v, symObjAddr: 0x4DAC, symBinAddr: 0x100009154, symSize: 0x3DC }
  - { offsetInCU: 0x12A87, offset: 0x12A87, size: 0x8, addend: 0x0, symName: __Z15test_lenguajes2v, symObjAddr: 0x5188, symBinAddr: 0x100009530, symSize: 0x3E0 }
  - { offsetInCU: 0x12B5E, offset: 0x12B5E, size: 0x8, addend: 0x0, symName: __Z15test_lenguajes3v, symObjAddr: 0x5568, symBinAddr: 0x100009910, symSize: 0x3D4 }
  - { offsetInCU: 0x12C35, offset: 0x12C35, size: 0x8, addend: 0x0, symName: __Z15test_lenguajes4v, symObjAddr: 0x593C, symBinAddr: 0x100009CE4, symSize: 0x3C0 }
  - { offsetInCU: 0x12D0C, offset: 0x12D0C, size: 0x8, addend: 0x0, symName: _main, symObjAddr: 0x5CFC, symBinAddr: 0x10000A0A4, symSize: 0x2C }
  - { offsetInCU: 0x12D31, offset: 0x12D31, size: 0x8, addend: 0x0, symName: __ZNKSt3__16__lessIvvEclB8ue170006IiiEEbRKT_RKT0_, symObjAddr: 0x5D7C, symBinAddr: 0x10000A124, symSize: 0x34 }
  - { offsetInCU: 0x12D84, offset: 0x12D84, size: 0x8, addend: 0x0, symName: __ZNKSt16initializer_listIiE5beginB8ue170006Ev, symObjAddr: 0x5DE0, symBinAddr: 0x10000A188, symSize: 0x18 }
  - { offsetInCU: 0x12DA9, offset: 0x12DA9, size: 0x8, addend: 0x0, symName: __ZNKSt16initializer_listIiE3endB8ue170006Ev, symObjAddr: 0x5DF8, symBinAddr: 0x10000A1A0, symSize: 0x20 }
  - { offsetInCU: 0x12DCE, offset: 0x12DCE, size: 0x8, addend: 0x0, symName: __ZNKSt3__16chrono8durationIxNS_5ratioILl1ELl1000000000EEEE5countB8ue170006Ev, symObjAddr: 0x5EFC, symBinAddr: 0x10000A2A4, symSize: 0x18 }
  - { offsetInCU: 0x12E02, offset: 0x12E02, size: 0x8, addend: 0x0, symName: __ZNSt3__16chrono8durationIxNS_5ratioILl1ELl1000000EEEEC1B8ue170006IxEERKT_PNS_9enable_ifIXaasr14is_convertibleIS8_xEE5valueooL_ZNS_17integral_constantIbLb0EE5valueEEntsr23treat_as_floating_pointIS6_EE5valueEvE4typeE, symObjAddr: 0x5F14, symBinAddr: 0x10000A2BC, symSize: 0x3C }
  - { offsetInCU: 0x12E4D, offset: 0x12E4D, size: 0x8, addend: 0x0, symName: __ZNSt3__16chrono8durationIxNS_5ratioILl1ELl1000000EEEEC2B8ue170006IxEERKT_PNS_9enable_ifIXaasr14is_convertibleIS8_xEE5valueooL_ZNS_17integral_constantIbLb0EE5valueEEntsr23treat_as_floating_pointIS6_EE5valueEvE4typeE, symObjAddr: 0x5F50, symBinAddr: 0x10000A2F8, symSize: 0x28 }
  - { offsetInCU: 0x12EB6, offset: 0x12EB6, size: 0x8, addend: 0x0, symName: __ZNKSt3__16chrono10time_pointINS0_12steady_clockENS0_8durationIxNS_5ratioILl1ELl1000000000EEEEEE16time_since_epochB8ue170006Ev, symObjAddr: 0x5FE8, symBinAddr: 0x10000A390, symSize: 0x20 }
  - { offsetInCU: 0x12EDB, offset: 0x12EDB, size: 0x8, addend: 0x0, symName: __ZNSt3__16chrono8durationIxNS_5ratioILl1ELl1000000000EEEEC1B8ue170006IxEERKT_PNS_9enable_ifIXaasr14is_convertibleIS8_xEE5valueooL_ZNS_17integral_constantIbLb0EE5valueEEntsr23treat_as_floating_pointIS6_EE5valueEvE4typeE, symObjAddr: 0x6008, symBinAddr: 0x10000A3B0, symSize: 0x3C }
  - { offsetInCU: 0x12F26, offset: 0x12F26, size: 0x8, addend: 0x0, symName: __ZNSt3__16chrono8durationIxNS_5ratioILl1ELl1000000000EEEEC2B8ue170006IxEERKT_PNS_9enable_ifIXaasr14is_convertibleIS8_xEE5valueooL_ZNS_17integral_constantIbLb0EE5valueEEntsr23treat_as_floating_pointIS6_EE5valueEvE4typeE, symObjAddr: 0x6044, symBinAddr: 0x10000A3EC, symSize: 0x28 }
  - { offsetInCU: 0x12F71, offset: 0x12F71, size: 0x8, addend: 0x0, symName: __ZNSt3__16vectorIiNS_9allocatorIiEEEC2ERKS3_, symObjAddr: 0x606C, symBinAddr: 0x10000A414, symSize: 0x94 }
  - { offsetInCU: 0x12FB5, offset: 0x12FB5, size: 0x8, addend: 0x0, symName: __ZNSt3__116allocator_traitsINS_9allocatorIiEEE37select_on_container_copy_constructionB8ue170006IS2_vvEES2_RKS2_, symObjAddr: 0x6100, symBinAddr: 0x10000A4A8, symSize: 0x10 }
  - { offsetInCU: 0x12FE3, offset: 0x12FE3, size: 0x8, addend: 0x0, symName: __ZNKSt3__16vectorIiNS_9allocatorIiEEE7__allocB8ue170006Ev, symObjAddr: 0x6110, symBinAddr: 0x10000A4B8, symSize: 0x28 }
  - { offsetInCU: 0x13012, offset: 0x13012, size: 0x8, addend: 0x0, symName: __ZNSt3__117__compressed_pairIPiNS_9allocatorIiEEEC1B8ue170006IDnS3_EEOT_OT0_, symObjAddr: 0x6138, symBinAddr: 0x10000A4E0, symSize: 0x3C }
  - { offsetInCU: 0x13068, offset: 0x13068, size: 0x8, addend: 0x0, symName: __ZNSt3__16vectorIiNS_9allocatorIiEEE16__init_with_sizeB8ue170006IPiS5_EEvT_T0_m, symObjAddr: 0x6174, symBinAddr: 0x10000A51C, symSize: 0xB8 }
  - { offsetInCU: 0x130DA, offset: 0x130DA, size: 0x8, addend: 0x0, symName: __ZNKSt3__117__compressed_pairIPiNS_9allocatorIiEEE6secondB8ue170006Ev, symObjAddr: 0x622C, symBinAddr: 0x10000A5D4, symSize: 0x24 }
  - { offsetInCU: 0x130FF, offset: 0x130FF, size: 0x8, addend: 0x0, symName: __ZNKSt3__122__compressed_pair_elemINS_9allocatorIiEELi1ELb1EE5__getB8ue170006Ev, symObjAddr: 0x6250, symBinAddr: 0x10000A5F8, symSize: 0x14 }
  - { offsetInCU: 0x13124, offset: 0x13124, size: 0x8, addend: 0x0, symName: __ZNSt3__117__compressed_pairIPiNS_9allocatorIiEEEC2B8ue170006IDnS3_EEOT_OT0_, symObjAddr: 0x6264, symBinAddr: 0x10000A60C, symSize: 0x44 }
  - { offsetInCU: 0x1317B, offset: 0x1317B, size: 0x8, addend: 0x0, symName: __ZNSt3__122__compressed_pair_elemIPiLi0ELb0EEC2B8ue170006IDnvEEOT_, symObjAddr: 0x62A8, symBinAddr: 0x10000A650, symSize: 0x1C }
  - { offsetInCU: 0x131BC, offset: 0x131BC, size: 0x8, addend: 0x0, symName: __ZNSt3__122__compressed_pair_elemINS_9allocatorIiEELi1ELb1EEC2B8ue170006IS2_vEEOT_, symObjAddr: 0x62C4, symBinAddr: 0x10000A66C, symSize: 0x18 }
  - { offsetInCU: 0x131FD, offset: 0x131FD, size: 0x8, addend: 0x0, symName: __ZNSt3__16vectorIiNS_9allocatorIiEEE16__destroy_vectorC1B8ue170006ERS3_, symObjAddr: 0x631C, symBinAddr: 0x10000A6C4, symSize: 0x34 }
  - { offsetInCU: 0x13234, offset: 0x13234, size: 0x8, addend: 0x0, symName: __ZNSt3__16vectorIiNS_9allocatorIiEEE11__vallocateB8ue170006Em, symObjAddr: 0x6350, symBinAddr: 0x10000A6F8, symSize: 0xAC }
  - { offsetInCU: 0x13277, offset: 0x13277, size: 0x8, addend: 0x0, symName: __ZNSt3__16vectorIiNS_9allocatorIiEEE18__construct_at_endIPiS5_EEvT_T0_m, symObjAddr: 0x63FC, symBinAddr: 0x10000A7A4, symSize: 0x8C }
  - { offsetInCU: 0x132EC, offset: 0x132EC, size: 0x8, addend: 0x0, symName: __ZNSt3__128__exception_guard_exceptionsINS_6vectorIiNS_9allocatorIiEEE16__destroy_vectorEE10__completeB8ue170006Ev, symObjAddr: 0x6488, symBinAddr: 0x10000A830, symSize: 0x1C }
  - { offsetInCU: 0x13311, offset: 0x13311, size: 0x8, addend: 0x0, symName: __ZNSt3__128__exception_guard_exceptionsINS_6vectorIiNS_9allocatorIiEEE16__destroy_vectorEED1B8ue170006Ev, symObjAddr: 0x64A4, symBinAddr: 0x10000A84C, symSize: 0x2C }
  - { offsetInCU: 0x1333A, offset: 0x1333A, size: 0x8, addend: 0x0, symName: __ZNSt3__128__exception_guard_exceptionsINS_6vectorIiNS_9allocatorIiEEE16__destroy_vectorEEC1B8ue170006ES5_, symObjAddr: 0x64D0, symBinAddr: 0x10000A878, symSize: 0x34 }
  - { offsetInCU: 0x13371, offset: 0x13371, size: 0x8, addend: 0x0, symName: __ZNSt3__128__exception_guard_exceptionsINS_6vectorIiNS_9allocatorIiEEE16__destroy_vectorEEC2B8ue170006ES5_, symObjAddr: 0x6504, symBinAddr: 0x10000A8AC, symSize: 0x24 }
  - { offsetInCU: 0x133A8, offset: 0x133A8, size: 0x8, addend: 0x0, symName: __ZNSt3__16vectorIiNS_9allocatorIiEEE16__destroy_vectorC2B8ue170006ERS3_, symObjAddr: 0x6528, symBinAddr: 0x10000A8D0, symSize: 0x20 }
  - { offsetInCU: 0x133E0, offset: 0x133E0, size: 0x8, addend: 0x0, symName: __ZNKSt3__16vectorIiNS_9allocatorIiEEE8max_sizeEv, symObjAddr: 0x6548, symBinAddr: 0x10000A8F0, symSize: 0x60 }
  - { offsetInCU: 0x13406, offset: 0x13406, size: 0x8, addend: 0x0, symName: __ZNKSt3__16vectorIiNS_9allocatorIiEEE20__throw_length_errorB8ue170006Ev, symObjAddr: 0x65A8, symBinAddr: 0x10000A950, symSize: 0x1C }
  - { offsetInCU: 0x1342A, offset: 0x1342A, size: 0x8, addend: 0x0, symName: __ZNSt3__16vectorIiNS_9allocatorIiEEE7__allocB8ue170006Ev, symObjAddr: 0x6604, symBinAddr: 0x10000A9AC, symSize: 0x28 }
  - { offsetInCU: 0x1344E, offset: 0x1344E, size: 0x8, addend: 0x0, symName: __ZNSt3__16vectorIiNS_9allocatorIiEEE9__end_capB8ue170006Ev, symObjAddr: 0x662C, symBinAddr: 0x10000A9D4, symSize: 0x28 }
  - { offsetInCU: 0x13472, offset: 0x13472, size: 0x8, addend: 0x0, symName: __ZNKSt3__16vectorIiNS_9allocatorIiEEE14__annotate_newB8ue170006Em, symObjAddr: 0x6654, symBinAddr: 0x10000A9FC, symSize: 0xAC }
  - { offsetInCU: 0x134A6, offset: 0x134A6, size: 0x8, addend: 0x0, symName: __ZNSt3__116allocator_traitsINS_9allocatorIiEEE8max_sizeB8ue170006IS2_vEEmRKS2_, symObjAddr: 0x672C, symBinAddr: 0x10000AAD4, symSize: 0x24 }
  - { offsetInCU: 0x134D4, offset: 0x134D4, size: 0x8, addend: 0x0, symName: __ZNSt3__114numeric_limitsIlE3maxB8ue170006Ev, symObjAddr: 0x6750, symBinAddr: 0x10000AAF8, symSize: 0x14 }
  - { offsetInCU: 0x134F2, offset: 0x134F2, size: 0x8, addend: 0x0, symName: __ZNKSt3__16__lessIvvEclB8ue170006ImmEEbRKT_RKT0_, symObjAddr: 0x67C4, symBinAddr: 0x10000AB6C, symSize: 0x34 }
  - { offsetInCU: 0x13545, offset: 0x13545, size: 0x8, addend: 0x0, symName: __ZNKSt3__19allocatorIiE8max_sizeB8ue170006Ev, symObjAddr: 0x67F8, symBinAddr: 0x10000ABA0, symSize: 0x14 }
  - { offsetInCU: 0x1356A, offset: 0x1356A, size: 0x8, addend: 0x0, symName: __ZNSt3__123__libcpp_numeric_limitsIlLb1EE3maxB8ue170006Ev, symObjAddr: 0x680C, symBinAddr: 0x10000ABB4, symSize: 0x8 }
  - { offsetInCU: 0x1357E, offset: 0x1357E, size: 0x8, addend: 0x0, symName: __ZNSt12length_errorC1B8ue170006EPKc, symObjAddr: 0x6878, symBinAddr: 0x10000AC20, symSize: 0x34 }
  - { offsetInCU: 0x135B5, offset: 0x135B5, size: 0x8, addend: 0x0, symName: __ZNSt12length_errorC2B8ue170006EPKc, symObjAddr: 0x68AC, symBinAddr: 0x10000AC54, symSize: 0x4C }
  - { offsetInCU: 0x135EB, offset: 0x135EB, size: 0x8, addend: 0x0, symName: __ZNSt3__19allocatorIiE8allocateB8ue170006Em, symObjAddr: 0x68F8, symBinAddr: 0x10000ACA0, symSize: 0x58 }
  - { offsetInCU: 0x1361D, offset: 0x1361D, size: 0x8, addend: 0x0, symName: __ZNSt3__117__compressed_pairIPiNS_9allocatorIiEEE6secondB8ue170006Ev, symObjAddr: 0x69D0, symBinAddr: 0x10000AD78, symSize: 0x24 }
  - { offsetInCU: 0x13642, offset: 0x13642, size: 0x8, addend: 0x0, symName: __ZNSt3__122__compressed_pair_elemINS_9allocatorIiEELi1ELb1EE5__getB8ue170006Ev, symObjAddr: 0x69F4, symBinAddr: 0x10000AD9C, symSize: 0x14 }
  - { offsetInCU: 0x13666, offset: 0x13666, size: 0x8, addend: 0x0, symName: __ZNSt3__117__compressed_pairIPiNS_9allocatorIiEEE5firstB8ue170006Ev, symObjAddr: 0x6A08, symBinAddr: 0x10000ADB0, symSize: 0x24 }
  - { offsetInCU: 0x1368B, offset: 0x1368B, size: 0x8, addend: 0x0, symName: __ZNSt3__122__compressed_pair_elemIPiLi0ELb0EE5__getB8ue170006Ev, symObjAddr: 0x6A2C, symBinAddr: 0x10000ADD4, symSize: 0x14 }
  - { offsetInCU: 0x136B0, offset: 0x136B0, size: 0x8, addend: 0x0, symName: __ZNKSt3__16vectorIiNS_9allocatorIiEEE31__annotate_contiguous_containerB8ue170006EPKvS5_S5_S5_, symObjAddr: 0x6A40, symBinAddr: 0x10000ADE8, symSize: 0x20 }
  - { offsetInCU: 0x13700, offset: 0x13700, size: 0x8, addend: 0x0, symName: __ZNKSt3__16vectorIiNS_9allocatorIiEEE4dataB8ue170006Ev, symObjAddr: 0x6A60, symBinAddr: 0x10000AE08, symSize: 0x28 }
  - { offsetInCU: 0x13724, offset: 0x13724, size: 0x8, addend: 0x0, symName: __ZNKSt3__16vectorIiNS_9allocatorIiEEE8capacityB8ue170006Ev, symObjAddr: 0x6A88, symBinAddr: 0x10000AE30, symSize: 0x40 }
  - { offsetInCU: 0x13748, offset: 0x13748, size: 0x8, addend: 0x0, symName: __ZNKSt3__16vectorIiNS_9allocatorIiEEE9__end_capB8ue170006Ev, symObjAddr: 0x6ADC, symBinAddr: 0x10000AE84, symSize: 0x28 }
  - { offsetInCU: 0x1376C, offset: 0x1376C, size: 0x8, addend: 0x0, symName: __ZNKSt3__117__compressed_pairIPiNS_9allocatorIiEEE5firstB8ue170006Ev, symObjAddr: 0x6B04, symBinAddr: 0x10000AEAC, symSize: 0x24 }
  - { offsetInCU: 0x13791, offset: 0x13791, size: 0x8, addend: 0x0, symName: __ZNKSt3__122__compressed_pair_elemIPiLi0ELb0EE5__getB8ue170006Ev, symObjAddr: 0x6B28, symBinAddr: 0x10000AED0, symSize: 0x14 }
  - { offsetInCU: 0x137CF, offset: 0x137CF, size: 0x8, addend: 0x0, symName: __ZNSt3__16vectorIiNS_9allocatorIiEEE21_ConstructTransactionC1B8ue170006ERS3_m, symObjAddr: 0x6B3C, symBinAddr: 0x10000AEE4, symSize: 0x3C }
  - { offsetInCU: 0x13816, offset: 0x13816, size: 0x8, addend: 0x0, symName: __ZNSt3__16vectorIiNS_9allocatorIiEEE21_ConstructTransactionD1B8ue170006Ev, symObjAddr: 0x6BF8, symBinAddr: 0x10000AFA0, symSize: 0x2C }
  - { offsetInCU: 0x1383F, offset: 0x1383F, size: 0x8, addend: 0x0, symName: __ZNSt3__16vectorIiNS_9allocatorIiEEE21_ConstructTransactionC2B8ue170006ERS3_m, symObjAddr: 0x6C24, symBinAddr: 0x10000AFCC, symSize: 0x44 }
  - { offsetInCU: 0x138A4, offset: 0x138A4, size: 0x8, addend: 0x0, symName: __ZNSt3__14pairIPiS1_EC1B8ue170006IS1_S1_LPv0EEEOT_OT0_, symObjAddr: 0x6D98, symBinAddr: 0x10000B140, symSize: 0x3C }
  - { offsetInCU: 0x13901, offset: 0x13901, size: 0x8, addend: 0x0, symName: __ZNSt3__14pairIPiS1_EC2B8ue170006IS1_S1_LPv0EEEOT_OT0_, symObjAddr: 0x6DD4, symBinAddr: 0x10000B17C, symSize: 0x34 }
  - { offsetInCU: 0x13967, offset: 0x13967, size: 0x8, addend: 0x0, symName: __ZNKSt3__114__copy_trivialclB8ue170006IiiLi0EEENS_4pairIPT_PT0_EES4_S4_S6_, symObjAddr: 0x6F84, symBinAddr: 0x10000B32C, symSize: 0x48 }
  - { offsetInCU: 0x139CE, offset: 0x139CE, size: 0x8, addend: 0x0, symName: __ZNSt3__14pairIPiS1_EC1B8ue170006IRS1_S1_LPv0EEEOT_OT0_, symObjAddr: 0x7114, symBinAddr: 0x10000B4BC, symSize: 0x3C }
  - { offsetInCU: 0x13A2B, offset: 0x13A2B, size: 0x8, addend: 0x0, symName: __ZNSt3__14pairIPiS1_EC2B8ue170006IRS1_S1_LPv0EEEOT_OT0_, symObjAddr: 0x7150, symBinAddr: 0x10000B4F8, symSize: 0x34 }
  - { offsetInCU: 0x13A88, offset: 0x13A88, size: 0x8, addend: 0x0, symName: __ZNSt3__118__unwrap_iter_implIPiLb1EE8__unwrapB8ue170006ES1_, symObjAddr: 0x7184, symBinAddr: 0x10000B52C, symSize: 0x24 }
  - { offsetInCU: 0x13AAB, offset: 0x13AAB, size: 0x8, addend: 0x0, symName: __ZNSt3__118__unwrap_iter_implIPiLb1EE8__rewrapB8ue170006ES1_S1_, symObjAddr: 0x71A8, symBinAddr: 0x10000B550, symSize: 0x50 }
  - { offsetInCU: 0x13ADC, offset: 0x13ADC, size: 0x8, addend: 0x0, symName: __ZNSt3__16vectorIiNS_9allocatorIiEEE21_ConstructTransactionD2B8ue170006Ev, symObjAddr: 0x71F8, symBinAddr: 0x10000B5A0, symSize: 0x20 }
  - { offsetInCU: 0x13B05, offset: 0x13B05, size: 0x8, addend: 0x0, symName: __ZNSt3__128__exception_guard_exceptionsINS_6vectorIiNS_9allocatorIiEEE16__destroy_vectorEED2B8ue170006Ev, symObjAddr: 0x7218, symBinAddr: 0x10000B5C0, symSize: 0x50 }
  - { offsetInCU: 0x13B2D, offset: 0x13B2D, size: 0x8, addend: 0x0, symName: __ZNSt3__16vectorIiNS_9allocatorIiEEE16__destroy_vectorclB8ue170006Ev, symObjAddr: 0x7268, symBinAddr: 0x10000B610, symSize: 0x90 }
  - { offsetInCU: 0x13B51, offset: 0x13B51, size: 0x8, addend: 0x0, symName: __ZNSt3__16vectorIiNS_9allocatorIiEEE7__clearB8ue170006Ev, symObjAddr: 0x72F8, symBinAddr: 0x10000B6A0, symSize: 0x28 }
  - { offsetInCU: 0x13B75, offset: 0x13B75, size: 0x8, addend: 0x0, symName: __ZNKSt3__16vectorIiNS_9allocatorIiEEE17__annotate_deleteB8ue170006Ev, symObjAddr: 0x7320, symBinAddr: 0x10000B6C8, symSize: 0xB8 }
  - { offsetInCU: 0x13B9A, offset: 0x13B9A, size: 0x8, addend: 0x0, symName: __ZNSt3__116allocator_traitsINS_9allocatorIiEEE10deallocateB8ue170006ERS2_Pim, symObjAddr: 0x73D8, symBinAddr: 0x10000B780, symSize: 0x34 }
  - { offsetInCU: 0x13BDB, offset: 0x13BDB, size: 0x8, addend: 0x0, symName: __ZNSt3__16vectorIiNS_9allocatorIiEEE22__base_destruct_at_endB8ue170006EPi, symObjAddr: 0x740C, symBinAddr: 0x10000B7B4, symSize: 0x8C }
  - { offsetInCU: 0x13C1E, offset: 0x13C1E, size: 0x8, addend: 0x0, symName: __ZNSt3__116allocator_traitsINS_9allocatorIiEEE7destroyB8ue170006IivEEvRS2_PT_, symObjAddr: 0x7498, symBinAddr: 0x10000B840, symSize: 0x2C }
  - { offsetInCU: 0x13C5B, offset: 0x13C5B, size: 0x8, addend: 0x0, symName: __ZNSt3__19allocatorIiE7destroyB8ue170006EPi, symObjAddr: 0x74C4, symBinAddr: 0x10000B86C, symSize: 0x14 }
  - { offsetInCU: 0x13C8D, offset: 0x13C8D, size: 0x8, addend: 0x0, symName: __ZNSt3__19allocatorIiE10deallocateB8ue170006EPim, symObjAddr: 0x74D8, symBinAddr: 0x10000B880, symSize: 0x40 }
  - { offsetInCU: 0x13CCE, offset: 0x13CCE, size: 0x8, addend: 0x0, symName: __ZNSt3__16vectorIiNS_9allocatorIiEEED2B8ue170006Ev, symObjAddr: 0x7594, symBinAddr: 0x10000B93C, symSize: 0x40 }
  - { offsetInCU: 0x13CF7, offset: 0x13CF7, size: 0x8, addend: 0x0, symName: __ZNSt3__16vectorIiNS_9allocatorIiEEEC2EmRKi, symObjAddr: 0x75D4, symBinAddr: 0x10000B97C, symSize: 0xDC }
  - { offsetInCU: 0x13D5A, offset: 0x13D5A, size: 0x8, addend: 0x0, symName: __ZNSt3__117__compressed_pairIPiNS_9allocatorIiEEEC1B8ue170006IDnNS_18__default_init_tagEEEOT_OT0_, symObjAddr: 0x76B0, symBinAddr: 0x10000BA58, symSize: 0x3C }
  - { offsetInCU: 0x13DB1, offset: 0x13DB1, size: 0x8, addend: 0x0, symName: __ZNSt3__16vectorIiNS_9allocatorIiEEE18__construct_at_endEmRKi, symObjAddr: 0x76EC, symBinAddr: 0x10000BA94, symSize: 0xD0 }
  - { offsetInCU: 0x13E31, offset: 0x13E31, size: 0x8, addend: 0x0, symName: __ZNSt3__117__compressed_pairIPiNS_9allocatorIiEEEC2B8ue170006IDnNS_18__default_init_tagEEEOT_OT0_, symObjAddr: 0x77BC, symBinAddr: 0x10000BB64, symSize: 0x40 }
  - { offsetInCU: 0x13E88, offset: 0x13E88, size: 0x8, addend: 0x0, symName: __ZNSt3__122__compressed_pair_elemINS_9allocatorIiEELi1ELb1EEC2B8ue170006ENS_18__default_init_tagE, symObjAddr: 0x77FC, symBinAddr: 0x10000BBA4, symSize: 0x2C }
  - { offsetInCU: 0x13EBC, offset: 0x13EBC, size: 0x8, addend: 0x0, symName: __ZNSt3__19allocatorIiEC2B8ue170006Ev, symObjAddr: 0x7828, symBinAddr: 0x10000BBD0, symSize: 0x2C }
  - { offsetInCU: 0x13EE5, offset: 0x13EE5, size: 0x8, addend: 0x0, symName: __ZNSt3__116__non_trivial_ifILb1ENS_9allocatorIiEEEC2B8ue170006Ev, symObjAddr: 0x7854, symBinAddr: 0x10000BBFC, symSize: 0x14 }
  - { offsetInCU: 0x13F0E, offset: 0x13F0E, size: 0x8, addend: 0x0, symName: __ZNSt3__116allocator_traitsINS_9allocatorIiEEE9constructB8ue170006IiJRKiEvEEvRS2_PT_DpOT0_, symObjAddr: 0x7868, symBinAddr: 0x10000BC10, symSize: 0x34 }
  - { offsetInCU: 0x13F65, offset: 0x13F65, size: 0x8, addend: 0x0, symName: __ZNSt3__19allocatorIiE9constructB8ue170006IiJRKiEEEvPT_DpOT0_, symObjAddr: 0x789C, symBinAddr: 0x10000BC44, symSize: 0x28 }
  - { offsetInCU: 0x13FBA, offset: 0x13FBA, size: 0x8, addend: 0x0, symName: __ZNSt3__16vectorINS0_IiNS_9allocatorIiEEEENS1_IS3_EEEC2EmRKS3_, symObjAddr: 0x78C4, symBinAddr: 0x10000BC6C, symSize: 0xDC }
  - { offsetInCU: 0x14018, offset: 0x14018, size: 0x8, addend: 0x0, symName: __ZNSt3__117__compressed_pairIPNS_6vectorIiNS_9allocatorIiEEEENS2_IS4_EEEC1B8ue170006IDnNS_18__default_init_tagEEEOT_OT0_, symObjAddr: 0x79A0, symBinAddr: 0x10000BD48, symSize: 0x3C }
  - { offsetInCU: 0x1406F, offset: 0x1406F, size: 0x8, addend: 0x0, symName: __ZNSt3__16vectorINS0_IiNS_9allocatorIiEEEENS1_IS3_EEE16__destroy_vectorC1B8ue170006ERS5_, symObjAddr: 0x7A1C, symBinAddr: 0x10000BDC4, symSize: 0x34 }
  - { offsetInCU: 0x140A6, offset: 0x140A6, size: 0x8, addend: 0x0, symName: __ZNSt3__16vectorINS0_IiNS_9allocatorIiEEEENS1_IS3_EEE11__vallocateB8ue170006Em, symObjAddr: 0x7A50, symBinAddr: 0x10000BDF8, symSize: 0xB4 }
  - { offsetInCU: 0x140E9, offset: 0x140E9, size: 0x8, addend: 0x0, symName: __ZNSt3__16vectorINS0_IiNS_9allocatorIiEEEENS1_IS3_EEE18__construct_at_endEmRKS3_, symObjAddr: 0x7B04, symBinAddr: 0x10000BEAC, symSize: 0xD0 }
  - { offsetInCU: 0x14169, offset: 0x14169, size: 0x8, addend: 0x0, symName: __ZNSt3__128__exception_guard_exceptionsINS_6vectorINS1_IiNS_9allocatorIiEEEENS2_IS4_EEE16__destroy_vectorEE10__completeB8ue170006Ev, symObjAddr: 0x7BD4, symBinAddr: 0x10000BF7C, symSize: 0x1C }
  - { offsetInCU: 0x1418E, offset: 0x1418E, size: 0x8, addend: 0x0, symName: __ZNSt3__128__exception_guard_exceptionsINS_6vectorINS1_IiNS_9allocatorIiEEEENS2_IS4_EEE16__destroy_vectorEED1B8ue170006Ev, symObjAddr: 0x7BF0, symBinAddr: 0x10000BF98, symSize: 0x2C }
  - { offsetInCU: 0x141B7, offset: 0x141B7, size: 0x8, addend: 0x0, symName: __ZNSt3__117__compressed_pairIPNS_6vectorIiNS_9allocatorIiEEEENS2_IS4_EEEC2B8ue170006IDnNS_18__default_init_tagEEEOT_OT0_, symObjAddr: 0x7C1C, symBinAddr: 0x10000BFC4, symSize: 0x40 }
  - { offsetInCU: 0x1420E, offset: 0x1420E, size: 0x8, addend: 0x0, symName: __ZNSt3__122__compressed_pair_elemIPNS_6vectorIiNS_9allocatorIiEEEELi0ELb0EEC2B8ue170006IDnvEEOT_, symObjAddr: 0x7C5C, symBinAddr: 0x10000C004, symSize: 0x1C }
  - { offsetInCU: 0x1424F, offset: 0x1424F, size: 0x8, addend: 0x0, symName: __ZNSt3__122__compressed_pair_elemINS_9allocatorINS_6vectorIiNS1_IiEEEEEELi1ELb1EEC2B8ue170006ENS_18__default_init_tagE, symObjAddr: 0x7C78, symBinAddr: 0x10000C020, symSize: 0x2C }
  - { offsetInCU: 0x14283, offset: 0x14283, size: 0x8, addend: 0x0, symName: __ZNSt3__19allocatorINS_6vectorIiNS0_IiEEEEEC2B8ue170006Ev, symObjAddr: 0x7CA4, symBinAddr: 0x10000C04C, symSize: 0x2C }
  - { offsetInCU: 0x142AC, offset: 0x142AC, size: 0x8, addend: 0x0, symName: __ZNSt3__116__non_trivial_ifILb1ENS_9allocatorINS_6vectorIiNS1_IiEEEEEEEC2B8ue170006Ev, symObjAddr: 0x7CD0, symBinAddr: 0x10000C078, symSize: 0x14 }
  - { offsetInCU: 0x142D5, offset: 0x142D5, size: 0x8, addend: 0x0, symName: __ZNSt3__128__exception_guard_exceptionsINS_6vectorINS1_IiNS_9allocatorIiEEEENS2_IS4_EEE16__destroy_vectorEEC1B8ue170006ES7_, symObjAddr: 0x7CE4, symBinAddr: 0x10000C08C, symSize: 0x34 }
  - { offsetInCU: 0x1430C, offset: 0x1430C, size: 0x8, addend: 0x0, symName: __ZNSt3__128__exception_guard_exceptionsINS_6vectorINS1_IiNS_9allocatorIiEEEENS2_IS4_EEE16__destroy_vectorEEC2B8ue170006ES7_, symObjAddr: 0x7D18, symBinAddr: 0x10000C0C0, symSize: 0x24 }
  - { offsetInCU: 0x14343, offset: 0x14343, size: 0x8, addend: 0x0, symName: __ZNSt3__16vectorINS0_IiNS_9allocatorIiEEEENS1_IS3_EEE16__destroy_vectorC2B8ue170006ERS5_, symObjAddr: 0x7D3C, symBinAddr: 0x10000C0E4, symSize: 0x20 }
  - { offsetInCU: 0x1437B, offset: 0x1437B, size: 0x8, addend: 0x0, symName: __ZNKSt3__16vectorINS0_IiNS_9allocatorIiEEEENS1_IS3_EEE8max_sizeEv, symObjAddr: 0x7D5C, symBinAddr: 0x10000C104, symSize: 0x60 }
  - { offsetInCU: 0x143A1, offset: 0x143A1, size: 0x8, addend: 0x0, symName: __ZNKSt3__16vectorINS0_IiNS_9allocatorIiEEEENS1_IS3_EEE20__throw_length_errorB8ue170006Ev, symObjAddr: 0x7DBC, symBinAddr: 0x10000C164, symSize: 0x1C }
  - { offsetInCU: 0x143C5, offset: 0x143C5, size: 0x8, addend: 0x0, symName: __ZNSt3__16vectorINS0_IiNS_9allocatorIiEEEENS1_IS3_EEE7__allocB8ue170006Ev, symObjAddr: 0x7E18, symBinAddr: 0x10000C1C0, symSize: 0x28 }
  - { offsetInCU: 0x143E9, offset: 0x143E9, size: 0x8, addend: 0x0, symName: __ZNSt3__16vectorINS0_IiNS_9allocatorIiEEEENS1_IS3_EEE9__end_capB8ue170006Ev, symObjAddr: 0x7E40, symBinAddr: 0x10000C1E8, symSize: 0x28 }
  - { offsetInCU: 0x1440D, offset: 0x1440D, size: 0x8, addend: 0x0, symName: __ZNKSt3__16vectorINS0_IiNS_9allocatorIiEEEENS1_IS3_EEE14__annotate_newB8ue170006Em, symObjAddr: 0x7E68, symBinAddr: 0x10000C210, symSize: 0xC8 }
  - { offsetInCU: 0x1444B, offset: 0x1444B, size: 0x8, addend: 0x0, symName: __ZNSt3__116allocator_traitsINS_9allocatorINS_6vectorIiNS1_IiEEEEEEE8max_sizeB8ue170006IS5_vEEmRKS5_, symObjAddr: 0x7F30, symBinAddr: 0x10000C2D8, symSize: 0x24 }
  - { offsetInCU: 0x14478, offset: 0x14478, size: 0x8, addend: 0x0, symName: __ZNKSt3__16vectorINS0_IiNS_9allocatorIiEEEENS1_IS3_EEE7__allocB8ue170006Ev, symObjAddr: 0x7F54, symBinAddr: 0x10000C2FC, symSize: 0x28 }
  - { offsetInCU: 0x1449D, offset: 0x1449D, size: 0x8, addend: 0x0, symName: __ZNKSt3__19allocatorINS_6vectorIiNS0_IiEEEEE8max_sizeB8ue170006Ev, symObjAddr: 0x7F7C, symBinAddr: 0x10000C324, symSize: 0x18 }
  - { offsetInCU: 0x144C1, offset: 0x144C1, size: 0x8, addend: 0x0, symName: __ZNKSt3__117__compressed_pairIPNS_6vectorIiNS_9allocatorIiEEEENS2_IS4_EEE6secondB8ue170006Ev, symObjAddr: 0x7F94, symBinAddr: 0x10000C33C, symSize: 0x24 }
  - { offsetInCU: 0x144E6, offset: 0x144E6, size: 0x8, addend: 0x0, symName: __ZNKSt3__122__compressed_pair_elemINS_9allocatorINS_6vectorIiNS1_IiEEEEEELi1ELb1EE5__getB8ue170006Ev, symObjAddr: 0x7FB8, symBinAddr: 0x10000C360, symSize: 0x14 }
  - { offsetInCU: 0x1450A, offset: 0x1450A, size: 0x8, addend: 0x0, symName: __ZNSt3__19allocatorINS_6vectorIiNS0_IiEEEEE8allocateB8ue170006Em, symObjAddr: 0x7FCC, symBinAddr: 0x10000C374, symSize: 0x5C }
  - { offsetInCU: 0x1453C, offset: 0x1453C, size: 0x8, addend: 0x0, symName: __ZNSt3__117__compressed_pairIPNS_6vectorIiNS_9allocatorIiEEEENS2_IS4_EEE6secondB8ue170006Ev, symObjAddr: 0x8028, symBinAddr: 0x10000C3D0, symSize: 0x24 }
  - { offsetInCU: 0x14561, offset: 0x14561, size: 0x8, addend: 0x0, symName: __ZNSt3__122__compressed_pair_elemINS_9allocatorINS_6vectorIiNS1_IiEEEEEELi1ELb1EE5__getB8ue170006Ev, symObjAddr: 0x804C, symBinAddr: 0x10000C3F4, symSize: 0x14 }
  - { offsetInCU: 0x14585, offset: 0x14585, size: 0x8, addend: 0x0, symName: __ZNSt3__117__compressed_pairIPNS_6vectorIiNS_9allocatorIiEEEENS2_IS4_EEE5firstB8ue170006Ev, symObjAddr: 0x8060, symBinAddr: 0x10000C408, symSize: 0x24 }
  - { offsetInCU: 0x145AA, offset: 0x145AA, size: 0x8, addend: 0x0, symName: __ZNSt3__122__compressed_pair_elemIPNS_6vectorIiNS_9allocatorIiEEEELi0ELb0EE5__getB8ue170006Ev, symObjAddr: 0x8084, symBinAddr: 0x10000C42C, symSize: 0x14 }
  - { offsetInCU: 0x145CF, offset: 0x145CF, size: 0x8, addend: 0x0, symName: __ZNKSt3__16vectorINS0_IiNS_9allocatorIiEEEENS1_IS3_EEE31__annotate_contiguous_containerB8ue170006EPKvS7_S7_S7_, symObjAddr: 0x8098, symBinAddr: 0x10000C440, symSize: 0x20 }
  - { offsetInCU: 0x1461F, offset: 0x1461F, size: 0x8, addend: 0x0, symName: __ZNKSt3__16vectorINS0_IiNS_9allocatorIiEEEENS1_IS3_EEE4dataB8ue170006Ev, symObjAddr: 0x80B8, symBinAddr: 0x10000C460, symSize: 0x28 }
  - { offsetInCU: 0x14643, offset: 0x14643, size: 0x8, addend: 0x0, symName: __ZNKSt3__16vectorINS0_IiNS_9allocatorIiEEEENS1_IS3_EEE8capacityB8ue170006Ev, symObjAddr: 0x80E0, symBinAddr: 0x10000C488, symSize: 0x40 }
  - { offsetInCU: 0x14667, offset: 0x14667, size: 0x8, addend: 0x0, symName: __ZNKSt3__16vectorINS0_IiNS_9allocatorIiEEEENS1_IS3_EEE9__end_capB8ue170006Ev, symObjAddr: 0x8134, symBinAddr: 0x10000C4DC, symSize: 0x28 }
  - { offsetInCU: 0x1468B, offset: 0x1468B, size: 0x8, addend: 0x0, symName: __ZNKSt3__117__compressed_pairIPNS_6vectorIiNS_9allocatorIiEEEENS2_IS4_EEE5firstB8ue170006Ev, symObjAddr: 0x815C, symBinAddr: 0x10000C504, symSize: 0x24 }
  - { offsetInCU: 0x146B0, offset: 0x146B0, size: 0x8, addend: 0x0, symName: __ZNKSt3__122__compressed_pair_elemIPNS_6vectorIiNS_9allocatorIiEEEELi0ELb0EE5__getB8ue170006Ev, symObjAddr: 0x8180, symBinAddr: 0x10000C528, symSize: 0x14 }
  - { offsetInCU: 0x146EE, offset: 0x146EE, size: 0x8, addend: 0x0, symName: __ZNSt3__16vectorINS0_IiNS_9allocatorIiEEEENS1_IS3_EEE21_ConstructTransactionC1B8ue170006ERS5_m, symObjAddr: 0x8194, symBinAddr: 0x10000C53C, symSize: 0x3C }
  - { offsetInCU: 0x14735, offset: 0x14735, size: 0x8, addend: 0x0, symName: __ZNSt3__116allocator_traitsINS_9allocatorINS_6vectorIiNS1_IiEEEEEEE9constructB8ue170006IS4_JRKS4_EvEEvRS5_PT_DpOT0_, symObjAddr: 0x81D0, symBinAddr: 0x10000C578, symSize: 0x34 }
  - { offsetInCU: 0x1478C, offset: 0x1478C, size: 0x8, addend: 0x0, symName: __ZNSt3__16vectorINS0_IiNS_9allocatorIiEEEENS1_IS3_EEE21_ConstructTransactionD1B8ue170006Ev, symObjAddr: 0x8204, symBinAddr: 0x10000C5AC, symSize: 0x2C }
  - { offsetInCU: 0x147B5, offset: 0x147B5, size: 0x8, addend: 0x0, symName: __ZNSt3__16vectorINS0_IiNS_9allocatorIiEEEENS1_IS3_EEE21_ConstructTransactionC2B8ue170006ERS5_m, symObjAddr: 0x8230, symBinAddr: 0x10000C5D8, symSize: 0x4C }
  - { offsetInCU: 0x147FB, offset: 0x147FB, size: 0x8, addend: 0x0, symName: __ZNSt3__19allocatorINS_6vectorIiNS0_IiEEEEE9constructB8ue170006IS3_JRKS3_EEEvPT_DpOT0_, symObjAddr: 0x827C, symBinAddr: 0x10000C624, symSize: 0x30 }
  - { offsetInCU: 0x14850, offset: 0x14850, size: 0x8, addend: 0x0, symName: __ZNSt3__16vectorINS0_IiNS_9allocatorIiEEEENS1_IS3_EEE21_ConstructTransactionD2B8ue170006Ev, symObjAddr: 0x82AC, symBinAddr: 0x10000C654, symSize: 0x20 }
  - { offsetInCU: 0x14879, offset: 0x14879, size: 0x8, addend: 0x0, symName: __ZNSt3__128__exception_guard_exceptionsINS_6vectorINS1_IiNS_9allocatorIiEEEENS2_IS4_EEE16__destroy_vectorEED2B8ue170006Ev, symObjAddr: 0x82CC, symBinAddr: 0x10000C674, symSize: 0x50 }
  - { offsetInCU: 0x148A1, offset: 0x148A1, size: 0x8, addend: 0x0, symName: __ZNSt3__16vectorINS0_IiNS_9allocatorIiEEEENS1_IS3_EEE16__destroy_vectorclB8ue170006Ev, symObjAddr: 0x831C, symBinAddr: 0x10000C6C4, symSize: 0x90 }
  - { offsetInCU: 0x148C5, offset: 0x148C5, size: 0x8, addend: 0x0, symName: __ZNSt3__16vectorINS0_IiNS_9allocatorIiEEEENS1_IS3_EEE7__clearB8ue170006Ev, symObjAddr: 0x83AC, symBinAddr: 0x10000C754, symSize: 0x28 }
  - { offsetInCU: 0x148E9, offset: 0x148E9, size: 0x8, addend: 0x0, symName: __ZNKSt3__16vectorINS0_IiNS_9allocatorIiEEEENS1_IS3_EEE17__annotate_deleteB8ue170006Ev, symObjAddr: 0x83D4, symBinAddr: 0x10000C77C, symSize: 0xD4 }
  - { offsetInCU: 0x1490E, offset: 0x1490E, size: 0x8, addend: 0x0, symName: __ZNSt3__116allocator_traitsINS_9allocatorINS_6vectorIiNS1_IiEEEEEEE10deallocateB8ue170006ERS5_PS4_m, symObjAddr: 0x84A8, symBinAddr: 0x10000C850, symSize: 0x34 }
  - { offsetInCU: 0x1494F, offset: 0x1494F, size: 0x8, addend: 0x0, symName: __ZNSt3__16vectorINS0_IiNS_9allocatorIiEEEENS1_IS3_EEE22__base_destruct_at_endB8ue170006EPS3_, symObjAddr: 0x84DC, symBinAddr: 0x10000C884, symSize: 0x8C }
  - { offsetInCU: 0x14992, offset: 0x14992, size: 0x8, addend: 0x0, symName: __ZNSt3__116allocator_traitsINS_9allocatorINS_6vectorIiNS1_IiEEEEEEE7destroyB8ue170006IS4_vEEvRS5_PT_, symObjAddr: 0x8568, symBinAddr: 0x10000C910, symSize: 0x2C }
  - { offsetInCU: 0x149CE, offset: 0x149CE, size: 0x8, addend: 0x0, symName: __ZNSt3__19allocatorINS_6vectorIiNS0_IiEEEEE7destroyB8ue170006EPS3_, symObjAddr: 0x8594, symBinAddr: 0x10000C93C, symSize: 0x28 }
  - { offsetInCU: 0x14A00, offset: 0x14A00, size: 0x8, addend: 0x0, symName: __ZNSt3__19allocatorINS_6vectorIiNS0_IiEEEEE10deallocateB8ue170006EPS3_m, symObjAddr: 0x85BC, symBinAddr: 0x10000C964, symSize: 0x44 }
  - { offsetInCU: 0x14A41, offset: 0x14A41, size: 0x8, addend: 0x0, symName: __ZNSt3__16vectorINS0_IiNS_9allocatorIiEEEENS1_IS3_EEED2B8ue170006Ev, symObjAddr: 0x8600, symBinAddr: 0x10000C9A8, symSize: 0x40 }
  - { offsetInCU: 0x14A6A, offset: 0x14A6A, size: 0x8, addend: 0x0, symName: __ZNSt3__16vectorINS0_INS0_IiNS_9allocatorIiEEEENS1_IS3_EEEENS1_IS5_EEEC2EmRKS5_, symObjAddr: 0x8640, symBinAddr: 0x10000C9E8, symSize: 0xDC }
  - { offsetInCU: 0x14AC8, offset: 0x14AC8, size: 0x8, addend: 0x0, symName: __ZNSt3__117__compressed_pairIPNS_6vectorINS1_IiNS_9allocatorIiEEEENS2_IS4_EEEENS2_IS6_EEEC1B8ue170006IDnNS_18__default_init_tagEEEOT_OT0_, symObjAddr: 0x871C, symBinAddr: 0x10000CAC4, symSize: 0x3C }
  - { offsetInCU: 0x14B1F, offset: 0x14B1F, size: 0x8, addend: 0x0, symName: __ZNSt3__16vectorINS0_INS0_IiNS_9allocatorIiEEEENS1_IS3_EEEENS1_IS5_EEE16__destroy_vectorC1B8ue170006ERS7_, symObjAddr: 0x8798, symBinAddr: 0x10000CB40, symSize: 0x34 }
  - { offsetInCU: 0x14B56, offset: 0x14B56, size: 0x8, addend: 0x0, symName: __ZNSt3__16vectorINS0_INS0_IiNS_9allocatorIiEEEENS1_IS3_EEEENS1_IS5_EEE11__vallocateB8ue170006Em, symObjAddr: 0x87CC, symBinAddr: 0x10000CB74, symSize: 0xB4 }
  - { offsetInCU: 0x14B99, offset: 0x14B99, size: 0x8, addend: 0x0, symName: __ZNSt3__16vectorINS0_INS0_IiNS_9allocatorIiEEEENS1_IS3_EEEENS1_IS5_EEE18__construct_at_endEmRKS5_, symObjAddr: 0x8880, symBinAddr: 0x10000CC28, symSize: 0xD0 }
  - { offsetInCU: 0x14C19, offset: 0x14C19, size: 0x8, addend: 0x0, symName: __ZNSt3__128__exception_guard_exceptionsINS_6vectorINS1_INS1_IiNS_9allocatorIiEEEENS2_IS4_EEEENS2_IS6_EEE16__destroy_vectorEE10__completeB8ue170006Ev, symObjAddr: 0x8950, symBinAddr: 0x10000CCF8, symSize: 0x1C }
  - { offsetInCU: 0x14C3E, offset: 0x14C3E, size: 0x8, addend: 0x0, symName: __ZNSt3__128__exception_guard_exceptionsINS_6vectorINS1_INS1_IiNS_9allocatorIiEEEENS2_IS4_EEEENS2_IS6_EEE16__destroy_vectorEED1B8ue170006Ev, symObjAddr: 0x896C, symBinAddr: 0x10000CD14, symSize: 0x2C }
  - { offsetInCU: 0x14C67, offset: 0x14C67, size: 0x8, addend: 0x0, symName: __ZNSt3__117__compressed_pairIPNS_6vectorINS1_IiNS_9allocatorIiEEEENS2_IS4_EEEENS2_IS6_EEEC2B8ue170006IDnNS_18__default_init_tagEEEOT_OT0_, symObjAddr: 0x8998, symBinAddr: 0x10000CD40, symSize: 0x40 }
  - { offsetInCU: 0x14CBE, offset: 0x14CBE, size: 0x8, addend: 0x0, symName: __ZNSt3__122__compressed_pair_elemIPNS_6vectorINS1_IiNS_9allocatorIiEEEENS2_IS4_EEEELi0ELb0EEC2B8ue170006IDnvEEOT_, symObjAddr: 0x89D8, symBinAddr: 0x10000CD80, symSize: 0x1C }
  - { offsetInCU: 0x14CFF, offset: 0x14CFF, size: 0x8, addend: 0x0, symName: __ZNSt3__122__compressed_pair_elemINS_9allocatorINS_6vectorINS2_IiNS1_IiEEEENS1_IS4_EEEEEELi1ELb1EEC2B8ue170006ENS_18__default_init_tagE, symObjAddr: 0x89F4, symBinAddr: 0x10000CD9C, symSize: 0x2C }
  - { offsetInCU: 0x14D33, offset: 0x14D33, size: 0x8, addend: 0x0, symName: __ZNSt3__19allocatorINS_6vectorINS1_IiNS0_IiEEEENS0_IS3_EEEEEC2B8ue170006Ev, symObjAddr: 0x8A20, symBinAddr: 0x10000CDC8, symSize: 0x2C }
  - { offsetInCU: 0x14D5C, offset: 0x14D5C, size: 0x8, addend: 0x0, symName: __ZNSt3__116__non_trivial_ifILb1ENS_9allocatorINS_6vectorINS2_IiNS1_IiEEEENS1_IS4_EEEEEEEC2B8ue170006Ev, symObjAddr: 0x8A4C, symBinAddr: 0x10000CDF4, symSize: 0x14 }
  - { offsetInCU: 0x14D85, offset: 0x14D85, size: 0x8, addend: 0x0, symName: __ZNSt3__128__exception_guard_exceptionsINS_6vectorINS1_INS1_IiNS_9allocatorIiEEEENS2_IS4_EEEENS2_IS6_EEE16__destroy_vectorEEC1B8ue170006ES9_, symObjAddr: 0x8A60, symBinAddr: 0x10000CE08, symSize: 0x34 }
  - { offsetInCU: 0x14DBC, offset: 0x14DBC, size: 0x8, addend: 0x0, symName: __ZNSt3__128__exception_guard_exceptionsINS_6vectorINS1_INS1_IiNS_9allocatorIiEEEENS2_IS4_EEEENS2_IS6_EEE16__destroy_vectorEEC2B8ue170006ES9_, symObjAddr: 0x8A94, symBinAddr: 0x10000CE3C, symSize: 0x24 }
  - { offsetInCU: 0x14DF3, offset: 0x14DF3, size: 0x8, addend: 0x0, symName: __ZNSt3__16vectorINS0_INS0_IiNS_9allocatorIiEEEENS1_IS3_EEEENS1_IS5_EEE16__destroy_vectorC2B8ue170006ERS7_, symObjAddr: 0x8AB8, symBinAddr: 0x10000CE60, symSize: 0x20 }
  - { offsetInCU: 0x14E2B, offset: 0x14E2B, size: 0x8, addend: 0x0, symName: __ZNKSt3__16vectorINS0_INS0_IiNS_9allocatorIiEEEENS1_IS3_EEEENS1_IS5_EEE8max_sizeEv, symObjAddr: 0x8AD8, symBinAddr: 0x10000CE80, symSize: 0x60 }
  - { offsetInCU: 0x14E51, offset: 0x14E51, size: 0x8, addend: 0x0, symName: __ZNKSt3__16vectorINS0_INS0_IiNS_9allocatorIiEEEENS1_IS3_EEEENS1_IS5_EEE20__throw_length_errorB8ue170006Ev, symObjAddr: 0x8B38, symBinAddr: 0x10000CEE0, symSize: 0x1C }
  - { offsetInCU: 0x14E75, offset: 0x14E75, size: 0x8, addend: 0x0, symName: __ZNSt3__16vectorINS0_INS0_IiNS_9allocatorIiEEEENS1_IS3_EEEENS1_IS5_EEE7__allocB8ue170006Ev, symObjAddr: 0x8B94, symBinAddr: 0x10000CF3C, symSize: 0x28 }
  - { offsetInCU: 0x14E99, offset: 0x14E99, size: 0x8, addend: 0x0, symName: __ZNSt3__16vectorINS0_INS0_IiNS_9allocatorIiEEEENS1_IS3_EEEENS1_IS5_EEE9__end_capB8ue170006Ev, symObjAddr: 0x8BBC, symBinAddr: 0x10000CF64, symSize: 0x28 }
  - { offsetInCU: 0x14EBD, offset: 0x14EBD, size: 0x8, addend: 0x0, symName: __ZNKSt3__16vectorINS0_INS0_IiNS_9allocatorIiEEEENS1_IS3_EEEENS1_IS5_EEE14__annotate_newB8ue170006Em, symObjAddr: 0x8BE4, symBinAddr: 0x10000CF8C, symSize: 0xC8 }
  - { offsetInCU: 0x14EFB, offset: 0x14EFB, size: 0x8, addend: 0x0, symName: __ZNSt3__116allocator_traitsINS_9allocatorINS_6vectorINS2_IiNS1_IiEEEENS1_IS4_EEEEEEE8max_sizeB8ue170006IS7_vEEmRKS7_, symObjAddr: 0x8CAC, symBinAddr: 0x10000D054, symSize: 0x24 }
  - { offsetInCU: 0x14F28, offset: 0x14F28, size: 0x8, addend: 0x0, symName: __ZNKSt3__16vectorINS0_INS0_IiNS_9allocatorIiEEEENS1_IS3_EEEENS1_IS5_EEE7__allocB8ue170006Ev, symObjAddr: 0x8CD0, symBinAddr: 0x10000D078, symSize: 0x28 }
  - { offsetInCU: 0x14F4D, offset: 0x14F4D, size: 0x8, addend: 0x0, symName: __ZNKSt3__19allocatorINS_6vectorINS1_IiNS0_IiEEEENS0_IS3_EEEEE8max_sizeB8ue170006Ev, symObjAddr: 0x8CF8, symBinAddr: 0x10000D0A0, symSize: 0x18 }
  - { offsetInCU: 0x14F71, offset: 0x14F71, size: 0x8, addend: 0x0, symName: __ZNKSt3__117__compressed_pairIPNS_6vectorINS1_IiNS_9allocatorIiEEEENS2_IS4_EEEENS2_IS6_EEE6secondB8ue170006Ev, symObjAddr: 0x8D10, symBinAddr: 0x10000D0B8, symSize: 0x24 }
  - { offsetInCU: 0x14F96, offset: 0x14F96, size: 0x8, addend: 0x0, symName: __ZNKSt3__122__compressed_pair_elemINS_9allocatorINS_6vectorINS2_IiNS1_IiEEEENS1_IS4_EEEEEELi1ELb1EE5__getB8ue170006Ev, symObjAddr: 0x8D34, symBinAddr: 0x10000D0DC, symSize: 0x14 }
  - { offsetInCU: 0x14FBA, offset: 0x14FBA, size: 0x8, addend: 0x0, symName: __ZNSt3__19allocatorINS_6vectorINS1_IiNS0_IiEEEENS0_IS3_EEEEE8allocateB8ue170006Em, symObjAddr: 0x8D48, symBinAddr: 0x10000D0F0, symSize: 0x5C }
  - { offsetInCU: 0x14FEC, offset: 0x14FEC, size: 0x8, addend: 0x0, symName: __ZNSt3__117__compressed_pairIPNS_6vectorINS1_IiNS_9allocatorIiEEEENS2_IS4_EEEENS2_IS6_EEE6secondB8ue170006Ev, symObjAddr: 0x8DA4, symBinAddr: 0x10000D14C, symSize: 0x24 }
  - { offsetInCU: 0x15011, offset: 0x15011, size: 0x8, addend: 0x0, symName: __ZNSt3__122__compressed_pair_elemINS_9allocatorINS_6vectorINS2_IiNS1_IiEEEENS1_IS4_EEEEEELi1ELb1EE5__getB8ue170006Ev, symObjAddr: 0x8DC8, symBinAddr: 0x10000D170, symSize: 0x14 }
  - { offsetInCU: 0x15035, offset: 0x15035, size: 0x8, addend: 0x0, symName: __ZNSt3__117__compressed_pairIPNS_6vectorINS1_IiNS_9allocatorIiEEEENS2_IS4_EEEENS2_IS6_EEE5firstB8ue170006Ev, symObjAddr: 0x8DDC, symBinAddr: 0x10000D184, symSize: 0x24 }
  - { offsetInCU: 0x1505A, offset: 0x1505A, size: 0x8, addend: 0x0, symName: __ZNSt3__122__compressed_pair_elemIPNS_6vectorINS1_IiNS_9allocatorIiEEEENS2_IS4_EEEELi0ELb0EE5__getB8ue170006Ev, symObjAddr: 0x8E00, symBinAddr: 0x10000D1A8, symSize: 0x14 }
  - { offsetInCU: 0x1507F, offset: 0x1507F, size: 0x8, addend: 0x0, symName: __ZNKSt3__16vectorINS0_INS0_IiNS_9allocatorIiEEEENS1_IS3_EEEENS1_IS5_EEE31__annotate_contiguous_containerB8ue170006EPKvS9_S9_S9_, symObjAddr: 0x8E14, symBinAddr: 0x10000D1BC, symSize: 0x20 }
  - { offsetInCU: 0x150CF, offset: 0x150CF, size: 0x8, addend: 0x0, symName: __ZNKSt3__16vectorINS0_INS0_IiNS_9allocatorIiEEEENS1_IS3_EEEENS1_IS5_EEE4dataB8ue170006Ev, symObjAddr: 0x8E34, symBinAddr: 0x10000D1DC, symSize: 0x28 }
  - { offsetInCU: 0x150F3, offset: 0x150F3, size: 0x8, addend: 0x0, symName: __ZNKSt3__16vectorINS0_INS0_IiNS_9allocatorIiEEEENS1_IS3_EEEENS1_IS5_EEE8capacityB8ue170006Ev, symObjAddr: 0x8E5C, symBinAddr: 0x10000D204, symSize: 0x40 }
  - { offsetInCU: 0x15117, offset: 0x15117, size: 0x8, addend: 0x0, symName: __ZNKSt3__16vectorINS0_INS0_IiNS_9allocatorIiEEEENS1_IS3_EEEENS1_IS5_EEE9__end_capB8ue170006Ev, symObjAddr: 0x8EB0, symBinAddr: 0x10000D258, symSize: 0x28 }
  - { offsetInCU: 0x1513B, offset: 0x1513B, size: 0x8, addend: 0x0, symName: __ZNKSt3__117__compressed_pairIPNS_6vectorINS1_IiNS_9allocatorIiEEEENS2_IS4_EEEENS2_IS6_EEE5firstB8ue170006Ev, symObjAddr: 0x8ED8, symBinAddr: 0x10000D280, symSize: 0x24 }
  - { offsetInCU: 0x15160, offset: 0x15160, size: 0x8, addend: 0x0, symName: __ZNKSt3__122__compressed_pair_elemIPNS_6vectorINS1_IiNS_9allocatorIiEEEENS2_IS4_EEEELi0ELb0EE5__getB8ue170006Ev, symObjAddr: 0x8EFC, symBinAddr: 0x10000D2A4, symSize: 0x14 }
  - { offsetInCU: 0x1519E, offset: 0x1519E, size: 0x8, addend: 0x0, symName: __ZNSt3__16vectorINS0_INS0_IiNS_9allocatorIiEEEENS1_IS3_EEEENS1_IS5_EEE21_ConstructTransactionC1B8ue170006ERS7_m, symObjAddr: 0x8F10, symBinAddr: 0x10000D2B8, symSize: 0x3C }
  - { offsetInCU: 0x151E5, offset: 0x151E5, size: 0x8, addend: 0x0, symName: __ZNSt3__116allocator_traitsINS_9allocatorINS_6vectorINS2_IiNS1_IiEEEENS1_IS4_EEEEEEE9constructB8ue170006IS6_JRKS6_EvEEvRS7_PT_DpOT0_, symObjAddr: 0x8F4C, symBinAddr: 0x10000D2F4, symSize: 0x34 }
  - { offsetInCU: 0x1523C, offset: 0x1523C, size: 0x8, addend: 0x0, symName: __ZNSt3__16vectorINS0_INS0_IiNS_9allocatorIiEEEENS1_IS3_EEEENS1_IS5_EEE21_ConstructTransactionD1B8ue170006Ev, symObjAddr: 0x8F80, symBinAddr: 0x10000D328, symSize: 0x2C }
  - { offsetInCU: 0x15265, offset: 0x15265, size: 0x8, addend: 0x0, symName: __ZNSt3__16vectorINS0_INS0_IiNS_9allocatorIiEEEENS1_IS3_EEEENS1_IS5_EEE21_ConstructTransactionC2B8ue170006ERS7_m, symObjAddr: 0x8FAC, symBinAddr: 0x10000D354, symSize: 0x4C }
  - { offsetInCU: 0x152AB, offset: 0x152AB, size: 0x8, addend: 0x0, symName: __ZNSt3__19allocatorINS_6vectorINS1_IiNS0_IiEEEENS0_IS3_EEEEE9constructB8ue170006IS5_JRKS5_EEEvPT_DpOT0_, symObjAddr: 0x8FF8, symBinAddr: 0x10000D3A0, symSize: 0x30 }
  - { offsetInCU: 0x15300, offset: 0x15300, size: 0x8, addend: 0x0, symName: __ZNSt3__16vectorINS0_IiNS_9allocatorIiEEEENS1_IS3_EEEC1ERKS5_, symObjAddr: 0x9028, symBinAddr: 0x10000D3D0, symSize: 0x34 }
  - { offsetInCU: 0x1533A, offset: 0x1533A, size: 0x8, addend: 0x0, symName: __ZNSt3__16vectorINS0_IiNS_9allocatorIiEEEENS1_IS3_EEEC2ERKS5_, symObjAddr: 0x905C, symBinAddr: 0x10000D404, symSize: 0x94 }
  - { offsetInCU: 0x15374, offset: 0x15374, size: 0x8, addend: 0x0, symName: __ZNSt3__116allocator_traitsINS_9allocatorINS_6vectorIiNS1_IiEEEEEEE37select_on_container_copy_constructionB8ue170006IS5_vvEES5_RKS5_, symObjAddr: 0x90F0, symBinAddr: 0x10000D498, symSize: 0x10 }
  - { offsetInCU: 0x153A8, offset: 0x153A8, size: 0x8, addend: 0x0, symName: __ZNSt3__117__compressed_pairIPNS_6vectorIiNS_9allocatorIiEEEENS2_IS4_EEEC1B8ue170006IDnS6_EEOT_OT0_, symObjAddr: 0x9100, symBinAddr: 0x10000D4A8, symSize: 0x3C }
  - { offsetInCU: 0x153FE, offset: 0x153FE, size: 0x8, addend: 0x0, symName: __ZNSt3__16vectorINS0_IiNS_9allocatorIiEEEENS1_IS3_EEE16__init_with_sizeB8ue170006IPS3_S7_EEvT_T0_m, symObjAddr: 0x913C, symBinAddr: 0x10000D4E4, symSize: 0xB8 }
  - { offsetInCU: 0x15471, offset: 0x15471, size: 0x8, addend: 0x0, symName: __ZNSt3__117__compressed_pairIPNS_6vectorIiNS_9allocatorIiEEEENS2_IS4_EEEC2B8ue170006IDnS6_EEOT_OT0_, symObjAddr: 0x91F4, symBinAddr: 0x10000D59C, symSize: 0x44 }
  - { offsetInCU: 0x154C8, offset: 0x154C8, size: 0x8, addend: 0x0, symName: __ZNSt3__122__compressed_pair_elemINS_9allocatorINS_6vectorIiNS1_IiEEEEEELi1ELb1EEC2B8ue170006IS5_vEEOT_, symObjAddr: 0x9238, symBinAddr: 0x10000D5E0, symSize: 0x18 }
  - { offsetInCU: 0x15509, offset: 0x15509, size: 0x8, addend: 0x0, symName: __ZNSt3__16vectorINS0_IiNS_9allocatorIiEEEENS1_IS3_EEE18__construct_at_endIPS3_S7_EEvT_T0_m, symObjAddr: 0x9250, symBinAddr: 0x10000D5F8, symSize: 0x8C }
  - { offsetInCU: 0x1559C, offset: 0x1559C, size: 0x8, addend: 0x0, symName: __ZNSt3__14pairIPNS_6vectorIiNS_9allocatorIiEEEES5_EC1B8ue170006IS5_S5_LPv0EEEOT_OT0_, symObjAddr: 0x9548, symBinAddr: 0x10000D8F0, symSize: 0x3C }
  - { offsetInCU: 0x155F9, offset: 0x155F9, size: 0x8, addend: 0x0, symName: __ZNSt3__14pairIPNS_6vectorIiNS_9allocatorIiEEEES5_EC2B8ue170006IS5_S5_LPv0EEEOT_OT0_, symObjAddr: 0x9584, symBinAddr: 0x10000D92C, symSize: 0x34 }
  - { offsetInCU: 0x15656, offset: 0x15656, size: 0x8, addend: 0x0, symName: __ZNSt3__129_AllocatorDestroyRangeReverseINS_9allocatorINS_6vectorIiNS1_IiEEEEEEPS4_EC1B8ue170006ERS5_RS6_S9_, symObjAddr: 0x9604, symBinAddr: 0x10000D9AC, symSize: 0x44 }
  - { offsetInCU: 0x156AC, offset: 0x156AC, size: 0x8, addend: 0x0, symName: __ZNSt3__116allocator_traitsINS_9allocatorINS_6vectorIiNS1_IiEEEEEEE9constructB8ue170006IS4_JRS4_EvEEvRS5_PT_DpOT0_, symObjAddr: 0x9648, symBinAddr: 0x10000D9F0, symSize: 0x34 }
  - { offsetInCU: 0x15703, offset: 0x15703, size: 0x8, addend: 0x0, symName: __ZNSt3__128__exception_guard_exceptionsINS_29_AllocatorDestroyRangeReverseINS_9allocatorINS_6vectorIiNS2_IiEEEEEEPS5_EEE10__completeB8ue170006Ev, symObjAddr: 0x967C, symBinAddr: 0x10000DA24, symSize: 0x1C }
  - { offsetInCU: 0x15728, offset: 0x15728, size: 0x8, addend: 0x0, symName: __ZNSt3__128__exception_guard_exceptionsINS_29_AllocatorDestroyRangeReverseINS_9allocatorINS_6vectorIiNS2_IiEEEEEEPS5_EEED1B8ue170006Ev, symObjAddr: 0x9698, symBinAddr: 0x10000DA40, symSize: 0x2C }
  - { offsetInCU: 0x15751, offset: 0x15751, size: 0x8, addend: 0x0, symName: __ZNSt3__128__exception_guard_exceptionsINS_29_AllocatorDestroyRangeReverseINS_9allocatorINS_6vectorIiNS2_IiEEEEEEPS5_EEEC1B8ue170006ES8_, symObjAddr: 0x96C4, symBinAddr: 0x10000DA6C, symSize: 0x34 }
  - { offsetInCU: 0x15789, offset: 0x15789, size: 0x8, addend: 0x0, symName: __ZNSt3__128__exception_guard_exceptionsINS_29_AllocatorDestroyRangeReverseINS_9allocatorINS_6vectorIiNS2_IiEEEEEEPS5_EEEC2B8ue170006ES8_, symObjAddr: 0x96F8, symBinAddr: 0x10000DAA0, symSize: 0x30 }
  - { offsetInCU: 0x157C1, offset: 0x157C1, size: 0x8, addend: 0x0, symName: __ZNSt3__129_AllocatorDestroyRangeReverseINS_9allocatorINS_6vectorIiNS1_IiEEEEEEPS4_EC2B8ue170006ERS5_RS6_S9_, symObjAddr: 0x9728, symBinAddr: 0x10000DAD0, symSize: 0x38 }
  - { offsetInCU: 0x15816, offset: 0x15816, size: 0x8, addend: 0x0, symName: __ZNSt3__19allocatorINS_6vectorIiNS0_IiEEEEE9constructB8ue170006IS3_JRS3_EEEvPT_DpOT0_, symObjAddr: 0x9760, symBinAddr: 0x10000DB08, symSize: 0x30 }
  - { offsetInCU: 0x1586B, offset: 0x1586B, size: 0x8, addend: 0x0, symName: __ZNSt3__128__exception_guard_exceptionsINS_29_AllocatorDestroyRangeReverseINS_9allocatorINS_6vectorIiNS2_IiEEEEEEPS5_EEED2B8ue170006Ev, symObjAddr: 0x9790, symBinAddr: 0x10000DB38, symSize: 0x50 }
  - { offsetInCU: 0x15893, offset: 0x15893, size: 0x8, addend: 0x0, symName: __ZNKSt3__129_AllocatorDestroyRangeReverseINS_9allocatorINS_6vectorIiNS1_IiEEEEEEPS4_EclB8ue170006Ev, symObjAddr: 0x97E0, symBinAddr: 0x10000DB88, symSize: 0x68 }
  - { offsetInCU: 0x158B8, offset: 0x158B8, size: 0x8, addend: 0x0, symName: __ZNSt3__116reverse_iteratorIPNS_6vectorIiNS_9allocatorIiEEEEEC1B8ue170006ES5_, symObjAddr: 0x98B8, symBinAddr: 0x10000DC60, symSize: 0x34 }
  - { offsetInCU: 0x158EF, offset: 0x158EF, size: 0x8, addend: 0x0, symName: __ZNSt3__116reverse_iteratorIPNS_6vectorIiNS_9allocatorIiEEEEEppB8ue170006Ev, symObjAddr: 0x9958, symBinAddr: 0x10000DD00, symSize: 0x20 }
  - { offsetInCU: 0x15914, offset: 0x15914, size: 0x8, addend: 0x0, symName: __ZNKSt3__116reverse_iteratorIPNS_6vectorIiNS_9allocatorIiEEEEE4baseB8ue170006Ev, symObjAddr: 0x9978, symBinAddr: 0x10000DD20, symSize: 0x18 }
  - { offsetInCU: 0x1593E, offset: 0x1593E, size: 0x8, addend: 0x0, symName: __ZNSt3__119__to_address_helperINS_16reverse_iteratorIPNS_6vectorIiNS_9allocatorIiEEEEEEvE6__callB8ue170006ERKS7_, symObjAddr: 0x9990, symBinAddr: 0x10000DD38, symSize: 0x38 }
  - { offsetInCU: 0x15960, offset: 0x15960, size: 0x8, addend: 0x0, symName: __ZNKSt3__116reverse_iteratorIPNS_6vectorIiNS_9allocatorIiEEEEEptB8ue170006Ev, symObjAddr: 0x99C8, symBinAddr: 0x10000DD70, symSize: 0x24 }
  - { offsetInCU: 0x15985, offset: 0x15985, size: 0x8, addend: 0x0, symName: __ZNKSt3__116reverse_iteratorIPNS_6vectorIiNS_9allocatorIiEEEEEdeB8ue170006Ev, symObjAddr: 0x99EC, symBinAddr: 0x10000DD94, symSize: 0x28 }
  - { offsetInCU: 0x159B8, offset: 0x159B8, size: 0x8, addend: 0x0, symName: __ZNSt3__116reverse_iteratorIPNS_6vectorIiNS_9allocatorIiEEEEEC2B8ue170006ES5_, symObjAddr: 0x9A14, symBinAddr: 0x10000DDBC, symSize: 0x28 }
  - { offsetInCU: 0x159EF, offset: 0x159EF, size: 0x8, addend: 0x0, symName: __ZNSt3__118__unwrap_iter_implIPNS_6vectorIiNS_9allocatorIiEEEELb1EE8__unwrapB8ue170006ES5_, symObjAddr: 0x9A3C, symBinAddr: 0x10000DDE4, symSize: 0x24 }
  - { offsetInCU: 0x15A12, offset: 0x15A12, size: 0x8, addend: 0x0, symName: __ZNSt3__118__unwrap_iter_implIPNS_6vectorIiNS_9allocatorIiEEEELb1EE8__rewrapB8ue170006ES5_S5_, symObjAddr: 0x9A60, symBinAddr: 0x10000DE08, symSize: 0x58 }
  - { offsetInCU: 0x15A43, offset: 0x15A43, size: 0x8, addend: 0x0, symName: __ZNSt3__16vectorINS0_INS0_IiNS_9allocatorIiEEEENS1_IS3_EEEENS1_IS5_EEE21_ConstructTransactionD2B8ue170006Ev, symObjAddr: 0x9AB8, symBinAddr: 0x10000DE60, symSize: 0x20 }
  - { offsetInCU: 0x15A6C, offset: 0x15A6C, size: 0x8, addend: 0x0, symName: __ZNSt3__128__exception_guard_exceptionsINS_6vectorINS1_INS1_IiNS_9allocatorIiEEEENS2_IS4_EEEENS2_IS6_EEE16__destroy_vectorEED2B8ue170006Ev, symObjAddr: 0x9AD8, symBinAddr: 0x10000DE80, symSize: 0x50 }
  - { offsetInCU: 0x15A94, offset: 0x15A94, size: 0x8, addend: 0x0, symName: __ZNSt3__16vectorINS0_INS0_IiNS_9allocatorIiEEEENS1_IS3_EEEENS1_IS5_EEE16__destroy_vectorclB8ue170006Ev, symObjAddr: 0x9B28, symBinAddr: 0x10000DED0, symSize: 0x90 }
  - { offsetInCU: 0x15AB8, offset: 0x15AB8, size: 0x8, addend: 0x0, symName: __ZNSt3__16vectorINS0_INS0_IiNS_9allocatorIiEEEENS1_IS3_EEEENS1_IS5_EEE7__clearB8ue170006Ev, symObjAddr: 0x9BB8, symBinAddr: 0x10000DF60, symSize: 0x28 }
  - { offsetInCU: 0x15ADC, offset: 0x15ADC, size: 0x8, addend: 0x0, symName: __ZNKSt3__16vectorINS0_INS0_IiNS_9allocatorIiEEEENS1_IS3_EEEENS1_IS5_EEE17__annotate_deleteB8ue170006Ev, symObjAddr: 0x9BE0, symBinAddr: 0x10000DF88, symSize: 0xD4 }
  - { offsetInCU: 0x15B01, offset: 0x15B01, size: 0x8, addend: 0x0, symName: __ZNSt3__116allocator_traitsINS_9allocatorINS_6vectorINS2_IiNS1_IiEEEENS1_IS4_EEEEEEE10deallocateB8ue170006ERS7_PS6_m, symObjAddr: 0x9CB4, symBinAddr: 0x10000E05C, symSize: 0x34 }
  - { offsetInCU: 0x15B42, offset: 0x15B42, size: 0x8, addend: 0x0, symName: __ZNSt3__16vectorINS0_INS0_IiNS_9allocatorIiEEEENS1_IS3_EEEENS1_IS5_EEE22__base_destruct_at_endB8ue170006EPS5_, symObjAddr: 0x9CE8, symBinAddr: 0x10000E090, symSize: 0x8C }
  - { offsetInCU: 0x15B85, offset: 0x15B85, size: 0x8, addend: 0x0, symName: __ZNSt3__116allocator_traitsINS_9allocatorINS_6vectorINS2_IiNS1_IiEEEENS1_IS4_EEEEEEE7destroyB8ue170006IS6_vEEvRS7_PT_, symObjAddr: 0x9D74, symBinAddr: 0x10000E11C, symSize: 0x2C }
  - { offsetInCU: 0x15BC1, offset: 0x15BC1, size: 0x8, addend: 0x0, symName: __ZNSt3__19allocatorINS_6vectorINS1_IiNS0_IiEEEENS0_IS3_EEEEE7destroyB8ue170006EPS5_, symObjAddr: 0x9DA0, symBinAddr: 0x10000E148, symSize: 0x28 }
  - { offsetInCU: 0x15BF4, offset: 0x15BF4, size: 0x8, addend: 0x0, symName: __ZNKSt3__16vectorINS0_INS0_IiNS_9allocatorIiEEEENS1_IS3_EEEENS1_IS5_EEE4sizeB8ue170006Ev, symObjAddr: 0x9DC8, symBinAddr: 0x10000E170, symSize: 0x28 }
  - { offsetInCU: 0x15C18, offset: 0x15C18, size: 0x8, addend: 0x0, symName: __ZNSt3__19allocatorINS_6vectorINS1_IiNS0_IiEEEENS0_IS3_EEEEE10deallocateB8ue170006EPS5_m, symObjAddr: 0x9DF0, symBinAddr: 0x10000E198, symSize: 0x44 }
  - { offsetInCU: 0x15C59, offset: 0x15C59, size: 0x8, addend: 0x0, symName: __ZNSt3__16vectorINS0_INS0_IiNS_9allocatorIiEEEENS1_IS3_EEEENS1_IS5_EEED2B8ue170006Ev, symObjAddr: 0x9E34, symBinAddr: 0x10000E1DC, symSize: 0x40 }
  - { offsetInCU: 0x15C82, offset: 0x15C82, size: 0x8, addend: 0x0, symName: __ZNSt3__16vectorINS0_INS0_INS0_IiNS_9allocatorIiEEEENS1_IS3_EEEENS1_IS5_EEEENS1_IS7_EEEC2EmRKS7_, symObjAddr: 0x9E74, symBinAddr: 0x10000E21C, symSize: 0xDC }
  - { offsetInCU: 0x15CE0, offset: 0x15CE0, size: 0x8, addend: 0x0, symName: __ZNSt3__117__compressed_pairIPNS_6vectorINS1_INS1_IiNS_9allocatorIiEEEENS2_IS4_EEEENS2_IS6_EEEENS2_IS8_EEEC1B8ue170006IDnNS_18__default_init_tagEEEOT_OT0_, symObjAddr: 0x9F50, symBinAddr: 0x10000E2F8, symSize: 0x3C }
  - { offsetInCU: 0x15D37, offset: 0x15D37, size: 0x8, addend: 0x0, symName: __ZNSt3__16vectorINS0_INS0_INS0_IiNS_9allocatorIiEEEENS1_IS3_EEEENS1_IS5_EEEENS1_IS7_EEE16__destroy_vectorC1B8ue170006ERS9_, symObjAddr: 0x9FCC, symBinAddr: 0x10000E374, symSize: 0x34 }
  - { offsetInCU: 0x15D6E, offset: 0x15D6E, size: 0x8, addend: 0x0, symName: __ZNSt3__16vectorINS0_INS0_INS0_IiNS_9allocatorIiEEEENS1_IS3_EEEENS1_IS5_EEEENS1_IS7_EEE11__vallocateB8ue170006Em, symObjAddr: 0xA000, symBinAddr: 0x10000E3A8, symSize: 0xB4 }
  - { offsetInCU: 0x15DB1, offset: 0x15DB1, size: 0x8, addend: 0x0, symName: __ZNSt3__16vectorINS0_INS0_INS0_IiNS_9allocatorIiEEEENS1_IS3_EEEENS1_IS5_EEEENS1_IS7_EEE18__construct_at_endEmRKS7_, symObjAddr: 0xA0B4, symBinAddr: 0x10000E45C, symSize: 0xD0 }
  - { offsetInCU: 0x15E31, offset: 0x15E31, size: 0x8, addend: 0x0, symName: __ZNSt3__128__exception_guard_exceptionsINS_6vectorINS1_INS1_INS1_IiNS_9allocatorIiEEEENS2_IS4_EEEENS2_IS6_EEEENS2_IS8_EEE16__destroy_vectorEE10__completeB8ue170006Ev, symObjAddr: 0xA184, symBinAddr: 0x10000E52C, symSize: 0x1C }
  - { offsetInCU: 0x15E56, offset: 0x15E56, size: 0x8, addend: 0x0, symName: __ZNSt3__128__exception_guard_exceptionsINS_6vectorINS1_INS1_INS1_IiNS_9allocatorIiEEEENS2_IS4_EEEENS2_IS6_EEEENS2_IS8_EEE16__destroy_vectorEED1B8ue170006Ev, symObjAddr: 0xA1A0, symBinAddr: 0x10000E548, symSize: 0x2C }
  - { offsetInCU: 0x15E7F, offset: 0x15E7F, size: 0x8, addend: 0x0, symName: __ZNSt3__117__compressed_pairIPNS_6vectorINS1_INS1_IiNS_9allocatorIiEEEENS2_IS4_EEEENS2_IS6_EEEENS2_IS8_EEEC2B8ue170006IDnNS_18__default_init_tagEEEOT_OT0_, symObjAddr: 0xA1CC, symBinAddr: 0x10000E574, symSize: 0x40 }
  - { offsetInCU: 0x15ED6, offset: 0x15ED6, size: 0x8, addend: 0x0, symName: __ZNSt3__122__compressed_pair_elemIPNS_6vectorINS1_INS1_IiNS_9allocatorIiEEEENS2_IS4_EEEENS2_IS6_EEEELi0ELb0EEC2B8ue170006IDnvEEOT_, symObjAddr: 0xA20C, symBinAddr: 0x10000E5B4, symSize: 0x1C }
  - { offsetInCU: 0x15F17, offset: 0x15F17, size: 0x8, addend: 0x0, symName: __ZNSt3__122__compressed_pair_elemINS_9allocatorINS_6vectorINS2_INS2_IiNS1_IiEEEENS1_IS4_EEEENS1_IS6_EEEEEELi1ELb1EEC2B8ue170006ENS_18__default_init_tagE, symObjAddr: 0xA228, symBinAddr: 0x10000E5D0, symSize: 0x2C }
  - { offsetInCU: 0x15F4B, offset: 0x15F4B, size: 0x8, addend: 0x0, symName: __ZNSt3__19allocatorINS_6vectorINS1_INS1_IiNS0_IiEEEENS0_IS3_EEEENS0_IS5_EEEEEC2B8ue170006Ev, symObjAddr: 0xA254, symBinAddr: 0x10000E5FC, symSize: 0x2C }
  - { offsetInCU: 0x15F74, offset: 0x15F74, size: 0x8, addend: 0x0, symName: __ZNSt3__116__non_trivial_ifILb1ENS_9allocatorINS_6vectorINS2_INS2_IiNS1_IiEEEENS1_IS4_EEEENS1_IS6_EEEEEEEC2B8ue170006Ev, symObjAddr: 0xA280, symBinAddr: 0x10000E628, symSize: 0x14 }
  - { offsetInCU: 0x15F9D, offset: 0x15F9D, size: 0x8, addend: 0x0, symName: __ZNSt3__128__exception_guard_exceptionsINS_6vectorINS1_INS1_INS1_IiNS_9allocatorIiEEEENS2_IS4_EEEENS2_IS6_EEEENS2_IS8_EEE16__destroy_vectorEEC1B8ue170006ESB_, symObjAddr: 0xA294, symBinAddr: 0x10000E63C, symSize: 0x34 }
  - { offsetInCU: 0x15FD4, offset: 0x15FD4, size: 0x8, addend: 0x0, symName: __ZNSt3__128__exception_guard_exceptionsINS_6vectorINS1_INS1_INS1_IiNS_9allocatorIiEEEENS2_IS4_EEEENS2_IS6_EEEENS2_IS8_EEE16__destroy_vectorEEC2B8ue170006ESB_, symObjAddr: 0xA2C8, symBinAddr: 0x10000E670, symSize: 0x24 }
  - { offsetInCU: 0x1600B, offset: 0x1600B, size: 0x8, addend: 0x0, symName: __ZNSt3__16vectorINS0_INS0_INS0_IiNS_9allocatorIiEEEENS1_IS3_EEEENS1_IS5_EEEENS1_IS7_EEE16__destroy_vectorC2B8ue170006ERS9_, symObjAddr: 0xA2EC, symBinAddr: 0x10000E694, symSize: 0x20 }
  - { offsetInCU: 0x16043, offset: 0x16043, size: 0x8, addend: 0x0, symName: __ZNKSt3__16vectorINS0_INS0_INS0_IiNS_9allocatorIiEEEENS1_IS3_EEEENS1_IS5_EEEENS1_IS7_EEE8max_sizeEv, symObjAddr: 0xA30C, symBinAddr: 0x10000E6B4, symSize: 0x60 }
  - { offsetInCU: 0x16069, offset: 0x16069, size: 0x8, addend: 0x0, symName: __ZNKSt3__16vectorINS0_INS0_INS0_IiNS_9allocatorIiEEEENS1_IS3_EEEENS1_IS5_EEEENS1_IS7_EEE20__throw_length_errorB8ue170006Ev, symObjAddr: 0xA36C, symBinAddr: 0x10000E714, symSize: 0x1C }
  - { offsetInCU: 0x1608D, offset: 0x1608D, size: 0x8, addend: 0x0, symName: __ZNSt3__16vectorINS0_INS0_INS0_IiNS_9allocatorIiEEEENS1_IS3_EEEENS1_IS5_EEEENS1_IS7_EEE7__allocB8ue170006Ev, symObjAddr: 0xA3C8, symBinAddr: 0x10000E770, symSize: 0x28 }
  - { offsetInCU: 0x160B1, offset: 0x160B1, size: 0x8, addend: 0x0, symName: __ZNSt3__16vectorINS0_INS0_INS0_IiNS_9allocatorIiEEEENS1_IS3_EEEENS1_IS5_EEEENS1_IS7_EEE9__end_capB8ue170006Ev, symObjAddr: 0xA3F0, symBinAddr: 0x10000E798, symSize: 0x28 }
  - { offsetInCU: 0x160D5, offset: 0x160D5, size: 0x8, addend: 0x0, symName: __ZNKSt3__16vectorINS0_INS0_INS0_IiNS_9allocatorIiEEEENS1_IS3_EEEENS1_IS5_EEEENS1_IS7_EEE14__annotate_newB8ue170006Em, symObjAddr: 0xA418, symBinAddr: 0x10000E7C0, symSize: 0xC8 }
  - { offsetInCU: 0x16113, offset: 0x16113, size: 0x8, addend: 0x0, symName: __ZNSt3__116allocator_traitsINS_9allocatorINS_6vectorINS2_INS2_IiNS1_IiEEEENS1_IS4_EEEENS1_IS6_EEEEEEE8max_sizeB8ue170006IS9_vEEmRKS9_, symObjAddr: 0xA4E0, symBinAddr: 0x10000E888, symSize: 0x24 }
  - { offsetInCU: 0x16140, offset: 0x16140, size: 0x8, addend: 0x0, symName: __ZNKSt3__16vectorINS0_INS0_INS0_IiNS_9allocatorIiEEEENS1_IS3_EEEENS1_IS5_EEEENS1_IS7_EEE7__allocB8ue170006Ev, symObjAddr: 0xA504, symBinAddr: 0x10000E8AC, symSize: 0x28 }
  - { offsetInCU: 0x16165, offset: 0x16165, size: 0x8, addend: 0x0, symName: __ZNKSt3__19allocatorINS_6vectorINS1_INS1_IiNS0_IiEEEENS0_IS3_EEEENS0_IS5_EEEEE8max_sizeB8ue170006Ev, symObjAddr: 0xA52C, symBinAddr: 0x10000E8D4, symSize: 0x18 }
  - { offsetInCU: 0x16189, offset: 0x16189, size: 0x8, addend: 0x0, symName: __ZNKSt3__117__compressed_pairIPNS_6vectorINS1_INS1_IiNS_9allocatorIiEEEENS2_IS4_EEEENS2_IS6_EEEENS2_IS8_EEE6secondB8ue170006Ev, symObjAddr: 0xA544, symBinAddr: 0x10000E8EC, symSize: 0x24 }
  - { offsetInCU: 0x161AE, offset: 0x161AE, size: 0x8, addend: 0x0, symName: __ZNKSt3__122__compressed_pair_elemINS_9allocatorINS_6vectorINS2_INS2_IiNS1_IiEEEENS1_IS4_EEEENS1_IS6_EEEEEELi1ELb1EE5__getB8ue170006Ev, symObjAddr: 0xA568, symBinAddr: 0x10000E910, symSize: 0x14 }
  - { offsetInCU: 0x161D2, offset: 0x161D2, size: 0x8, addend: 0x0, symName: __ZNSt3__19allocatorINS_6vectorINS1_INS1_IiNS0_IiEEEENS0_IS3_EEEENS0_IS5_EEEEE8allocateB8ue170006Em, symObjAddr: 0xA57C, symBinAddr: 0x10000E924, symSize: 0x5C }
  - { offsetInCU: 0x16204, offset: 0x16204, size: 0x8, addend: 0x0, symName: __ZNSt3__117__compressed_pairIPNS_6vectorINS1_INS1_IiNS_9allocatorIiEEEENS2_IS4_EEEENS2_IS6_EEEENS2_IS8_EEE6secondB8ue170006Ev, symObjAddr: 0xA5D8, symBinAddr: 0x10000E980, symSize: 0x24 }
  - { offsetInCU: 0x16229, offset: 0x16229, size: 0x8, addend: 0x0, symName: __ZNSt3__122__compressed_pair_elemINS_9allocatorINS_6vectorINS2_INS2_IiNS1_IiEEEENS1_IS4_EEEENS1_IS6_EEEEEELi1ELb1EE5__getB8ue170006Ev, symObjAddr: 0xA5FC, symBinAddr: 0x10000E9A4, symSize: 0x14 }
  - { offsetInCU: 0x1624D, offset: 0x1624D, size: 0x8, addend: 0x0, symName: __ZNSt3__117__compressed_pairIPNS_6vectorINS1_INS1_IiNS_9allocatorIiEEEENS2_IS4_EEEENS2_IS6_EEEENS2_IS8_EEE5firstB8ue170006Ev, symObjAddr: 0xA610, symBinAddr: 0x10000E9B8, symSize: 0x24 }
  - { offsetInCU: 0x16272, offset: 0x16272, size: 0x8, addend: 0x0, symName: __ZNSt3__122__compressed_pair_elemIPNS_6vectorINS1_INS1_IiNS_9allocatorIiEEEENS2_IS4_EEEENS2_IS6_EEEELi0ELb0EE5__getB8ue170006Ev, symObjAddr: 0xA634, symBinAddr: 0x10000E9DC, symSize: 0x14 }
  - { offsetInCU: 0x16297, offset: 0x16297, size: 0x8, addend: 0x0, symName: __ZNKSt3__16vectorINS0_INS0_INS0_IiNS_9allocatorIiEEEENS1_IS3_EEEENS1_IS5_EEEENS1_IS7_EEE31__annotate_contiguous_containerB8ue170006EPKvSB_SB_SB_, symObjAddr: 0xA648, symBinAddr: 0x10000E9F0, symSize: 0x20 }
  - { offsetInCU: 0x162E7, offset: 0x162E7, size: 0x8, addend: 0x0, symName: __ZNKSt3__16vectorINS0_INS0_INS0_IiNS_9allocatorIiEEEENS1_IS3_EEEENS1_IS5_EEEENS1_IS7_EEE4dataB8ue170006Ev, symObjAddr: 0xA668, symBinAddr: 0x10000EA10, symSize: 0x28 }
  - { offsetInCU: 0x1630B, offset: 0x1630B, size: 0x8, addend: 0x0, symName: __ZNKSt3__16vectorINS0_INS0_INS0_IiNS_9allocatorIiEEEENS1_IS3_EEEENS1_IS5_EEEENS1_IS7_EEE8capacityB8ue170006Ev, symObjAddr: 0xA690, symBinAddr: 0x10000EA38, symSize: 0x40 }
  - { offsetInCU: 0x1632F, offset: 0x1632F, size: 0x8, addend: 0x0, symName: __ZNKSt3__16vectorINS0_INS0_INS0_IiNS_9allocatorIiEEEENS1_IS3_EEEENS1_IS5_EEEENS1_IS7_EEE9__end_capB8ue170006Ev, symObjAddr: 0xA6E4, symBinAddr: 0x10000EA8C, symSize: 0x28 }
  - { offsetInCU: 0x16353, offset: 0x16353, size: 0x8, addend: 0x0, symName: __ZNKSt3__117__compressed_pairIPNS_6vectorINS1_INS1_IiNS_9allocatorIiEEEENS2_IS4_EEEENS2_IS6_EEEENS2_IS8_EEE5firstB8ue170006Ev, symObjAddr: 0xA70C, symBinAddr: 0x10000EAB4, symSize: 0x24 }
  - { offsetInCU: 0x16378, offset: 0x16378, size: 0x8, addend: 0x0, symName: __ZNKSt3__122__compressed_pair_elemIPNS_6vectorINS1_INS1_IiNS_9allocatorIiEEEENS2_IS4_EEEENS2_IS6_EEEELi0ELb0EE5__getB8ue170006Ev, symObjAddr: 0xA730, symBinAddr: 0x10000EAD8, symSize: 0x14 }
  - { offsetInCU: 0x163B6, offset: 0x163B6, size: 0x8, addend: 0x0, symName: __ZNSt3__16vectorINS0_INS0_INS0_IiNS_9allocatorIiEEEENS1_IS3_EEEENS1_IS5_EEEENS1_IS7_EEE21_ConstructTransactionC1B8ue170006ERS9_m, symObjAddr: 0xA744, symBinAddr: 0x10000EAEC, symSize: 0x3C }
  - { offsetInCU: 0x163FD, offset: 0x163FD, size: 0x8, addend: 0x0, symName: __ZNSt3__116allocator_traitsINS_9allocatorINS_6vectorINS2_INS2_IiNS1_IiEEEENS1_IS4_EEEENS1_IS6_EEEEEEE9constructB8ue170006IS8_JRKS8_EvEEvRS9_PT_DpOT0_, symObjAddr: 0xA780, symBinAddr: 0x10000EB28, symSize: 0x34 }
  - { offsetInCU: 0x16454, offset: 0x16454, size: 0x8, addend: 0x0, symName: __ZNSt3__16vectorINS0_INS0_INS0_IiNS_9allocatorIiEEEENS1_IS3_EEEENS1_IS5_EEEENS1_IS7_EEE21_ConstructTransactionD1B8ue170006Ev, symObjAddr: 0xA7B4, symBinAddr: 0x10000EB5C, symSize: 0x2C }
  - { offsetInCU: 0x1647D, offset: 0x1647D, size: 0x8, addend: 0x0, symName: __ZNSt3__16vectorINS0_INS0_INS0_IiNS_9allocatorIiEEEENS1_IS3_EEEENS1_IS5_EEEENS1_IS7_EEE21_ConstructTransactionC2B8ue170006ERS9_m, symObjAddr: 0xA7E0, symBinAddr: 0x10000EB88, symSize: 0x4C }
  - { offsetInCU: 0x164C3, offset: 0x164C3, size: 0x8, addend: 0x0, symName: __ZNSt3__19allocatorINS_6vectorINS1_INS1_IiNS0_IiEEEENS0_IS3_EEEENS0_IS5_EEEEE9constructB8ue170006IS7_JRKS7_EEEvPT_DpOT0_, symObjAddr: 0xA82C, symBinAddr: 0x10000EBD4, symSize: 0x30 }
  - { offsetInCU: 0x16518, offset: 0x16518, size: 0x8, addend: 0x0, symName: __ZNSt3__16vectorINS0_INS0_IiNS_9allocatorIiEEEENS1_IS3_EEEENS1_IS5_EEEC1ERKS7_, symObjAddr: 0xA85C, symBinAddr: 0x10000EC04, symSize: 0x34 }
  - { offsetInCU: 0x16552, offset: 0x16552, size: 0x8, addend: 0x0, symName: __ZNSt3__16vectorINS0_INS0_IiNS_9allocatorIiEEEENS1_IS3_EEEENS1_IS5_EEEC2ERKS7_, symObjAddr: 0xA890, symBinAddr: 0x10000EC38, symSize: 0x94 }
  - { offsetInCU: 0x1658C, offset: 0x1658C, size: 0x8, addend: 0x0, symName: __ZNSt3__116allocator_traitsINS_9allocatorINS_6vectorINS2_IiNS1_IiEEEENS1_IS4_EEEEEEE37select_on_container_copy_constructionB8ue170006IS7_vvEES7_RKS7_, symObjAddr: 0xA924, symBinAddr: 0x10000ECCC, symSize: 0x10 }
  - { offsetInCU: 0x165C0, offset: 0x165C0, size: 0x8, addend: 0x0, symName: __ZNSt3__117__compressed_pairIPNS_6vectorINS1_IiNS_9allocatorIiEEEENS2_IS4_EEEENS2_IS6_EEEC1B8ue170006IDnS8_EEOT_OT0_, symObjAddr: 0xA934, symBinAddr: 0x10000ECDC, symSize: 0x3C }
  - { offsetInCU: 0x16616, offset: 0x16616, size: 0x8, addend: 0x0, symName: __ZNSt3__16vectorINS0_INS0_IiNS_9allocatorIiEEEENS1_IS3_EEEENS1_IS5_EEE16__init_with_sizeB8ue170006IPS5_S9_EEvT_T0_m, symObjAddr: 0xA970, symBinAddr: 0x10000ED18, symSize: 0xB8 }
  - { offsetInCU: 0x16689, offset: 0x16689, size: 0x8, addend: 0x0, symName: __ZNSt3__117__compressed_pairIPNS_6vectorINS1_IiNS_9allocatorIiEEEENS2_IS4_EEEENS2_IS6_EEEC2B8ue170006IDnS8_EEOT_OT0_, symObjAddr: 0xAA28, symBinAddr: 0x10000EDD0, symSize: 0x44 }
  - { offsetInCU: 0x166E0, offset: 0x166E0, size: 0x8, addend: 0x0, symName: __ZNSt3__122__compressed_pair_elemINS_9allocatorINS_6vectorINS2_IiNS1_IiEEEENS1_IS4_EEEEEELi1ELb1EEC2B8ue170006IS7_vEEOT_, symObjAddr: 0xAA6C, symBinAddr: 0x10000EE14, symSize: 0x18 }
  - { offsetInCU: 0x16721, offset: 0x16721, size: 0x8, addend: 0x0, symName: __ZNSt3__16vectorINS0_INS0_IiNS_9allocatorIiEEEENS1_IS3_EEEENS1_IS5_EEE18__construct_at_endIPS5_S9_EEvT_T0_m, symObjAddr: 0xAA84, symBinAddr: 0x10000EE2C, symSize: 0x8C }
  - { offsetInCU: 0x167B4, offset: 0x167B4, size: 0x8, addend: 0x0, symName: __ZNSt3__14pairIPNS_6vectorINS1_IiNS_9allocatorIiEEEENS2_IS4_EEEES7_EC1B8ue170006IS7_S7_LPv0EEEOT_OT0_, symObjAddr: 0xAD7C, symBinAddr: 0x10000F124, symSize: 0x3C }
  - { offsetInCU: 0x16811, offset: 0x16811, size: 0x8, addend: 0x0, symName: __ZNSt3__14pairIPNS_6vectorINS1_IiNS_9allocatorIiEEEENS2_IS4_EEEES7_EC2B8ue170006IS7_S7_LPv0EEEOT_OT0_, symObjAddr: 0xADB8, symBinAddr: 0x10000F160, symSize: 0x34 }
  - { offsetInCU: 0x1686E, offset: 0x1686E, size: 0x8, addend: 0x0, symName: __ZNSt3__129_AllocatorDestroyRangeReverseINS_9allocatorINS_6vectorINS2_IiNS1_IiEEEENS1_IS4_EEEEEEPS6_EC1B8ue170006ERS7_RS8_SB_, symObjAddr: 0xAE38, symBinAddr: 0x10000F1E0, symSize: 0x44 }
  - { offsetInCU: 0x168C4, offset: 0x168C4, size: 0x8, addend: 0x0, symName: __ZNSt3__116allocator_traitsINS_9allocatorINS_6vectorINS2_IiNS1_IiEEEENS1_IS4_EEEEEEE9constructB8ue170006IS6_JRS6_EvEEvRS7_PT_DpOT0_, symObjAddr: 0xAE7C, symBinAddr: 0x10000F224, symSize: 0x34 }
  - { offsetInCU: 0x1691B, offset: 0x1691B, size: 0x8, addend: 0x0, symName: __ZNSt3__128__exception_guard_exceptionsINS_29_AllocatorDestroyRangeReverseINS_9allocatorINS_6vectorINS3_IiNS2_IiEEEENS2_IS5_EEEEEEPS7_EEE10__completeB8ue170006Ev, symObjAddr: 0xAEB0, symBinAddr: 0x10000F258, symSize: 0x1C }
  - { offsetInCU: 0x16940, offset: 0x16940, size: 0x8, addend: 0x0, symName: __ZNSt3__128__exception_guard_exceptionsINS_29_AllocatorDestroyRangeReverseINS_9allocatorINS_6vectorINS3_IiNS2_IiEEEENS2_IS5_EEEEEEPS7_EEED1B8ue170006Ev, symObjAddr: 0xAECC, symBinAddr: 0x10000F274, symSize: 0x2C }
  - { offsetInCU: 0x16969, offset: 0x16969, size: 0x8, addend: 0x0, symName: __ZNSt3__128__exception_guard_exceptionsINS_29_AllocatorDestroyRangeReverseINS_9allocatorINS_6vectorINS3_IiNS2_IiEEEENS2_IS5_EEEEEEPS7_EEEC1B8ue170006ESA_, symObjAddr: 0xAEF8, symBinAddr: 0x10000F2A0, symSize: 0x34 }
  - { offsetInCU: 0x169A1, offset: 0x169A1, size: 0x8, addend: 0x0, symName: __ZNSt3__128__exception_guard_exceptionsINS_29_AllocatorDestroyRangeReverseINS_9allocatorINS_6vectorINS3_IiNS2_IiEEEENS2_IS5_EEEEEEPS7_EEEC2B8ue170006ESA_, symObjAddr: 0xAF2C, symBinAddr: 0x10000F2D4, symSize: 0x30 }
  - { offsetInCU: 0x169D9, offset: 0x169D9, size: 0x8, addend: 0x0, symName: __ZNSt3__129_AllocatorDestroyRangeReverseINS_9allocatorINS_6vectorINS2_IiNS1_IiEEEENS1_IS4_EEEEEEPS6_EC2B8ue170006ERS7_RS8_SB_, symObjAddr: 0xAF5C, symBinAddr: 0x10000F304, symSize: 0x38 }
  - { offsetInCU: 0x16A2E, offset: 0x16A2E, size: 0x8, addend: 0x0, symName: __ZNSt3__19allocatorINS_6vectorINS1_IiNS0_IiEEEENS0_IS3_EEEEE9constructB8ue170006IS5_JRS5_EEEvPT_DpOT0_, symObjAddr: 0xAF94, symBinAddr: 0x10000F33C, symSize: 0x30 }
  - { offsetInCU: 0x16A83, offset: 0x16A83, size: 0x8, addend: 0x0, symName: __ZNSt3__128__exception_guard_exceptionsINS_29_AllocatorDestroyRangeReverseINS_9allocatorINS_6vectorINS3_IiNS2_IiEEEENS2_IS5_EEEEEEPS7_EEED2B8ue170006Ev, symObjAddr: 0xAFC4, symBinAddr: 0x10000F36C, symSize: 0x50 }
  - { offsetInCU: 0x16AAB, offset: 0x16AAB, size: 0x8, addend: 0x0, symName: __ZNKSt3__129_AllocatorDestroyRangeReverseINS_9allocatorINS_6vectorINS2_IiNS1_IiEEEENS1_IS4_EEEEEEPS6_EclB8ue170006Ev, symObjAddr: 0xB014, symBinAddr: 0x10000F3BC, symSize: 0x68 }
  - { offsetInCU: 0x16AD0, offset: 0x16AD0, size: 0x8, addend: 0x0, symName: __ZNSt3__116reverse_iteratorIPNS_6vectorINS1_IiNS_9allocatorIiEEEENS2_IS4_EEEEEC1B8ue170006ES7_, symObjAddr: 0xB0EC, symBinAddr: 0x10000F494, symSize: 0x34 }
  - { offsetInCU: 0x16B07, offset: 0x16B07, size: 0x8, addend: 0x0, symName: __ZNSt3__116reverse_iteratorIPNS_6vectorINS1_IiNS_9allocatorIiEEEENS2_IS4_EEEEEppB8ue170006Ev, symObjAddr: 0xB18C, symBinAddr: 0x10000F534, symSize: 0x20 }
  - { offsetInCU: 0x16B2C, offset: 0x16B2C, size: 0x8, addend: 0x0, symName: __ZNKSt3__116reverse_iteratorIPNS_6vectorINS1_IiNS_9allocatorIiEEEENS2_IS4_EEEEE4baseB8ue170006Ev, symObjAddr: 0xB1AC, symBinAddr: 0x10000F554, symSize: 0x18 }
  - { offsetInCU: 0x16B56, offset: 0x16B56, size: 0x8, addend: 0x0, symName: __ZNSt3__119__to_address_helperINS_16reverse_iteratorIPNS_6vectorINS2_IiNS_9allocatorIiEEEENS3_IS5_EEEEEEvE6__callB8ue170006ERKS9_, symObjAddr: 0xB1C4, symBinAddr: 0x10000F56C, symSize: 0x38 }
  - { offsetInCU: 0x16B78, offset: 0x16B78, size: 0x8, addend: 0x0, symName: __ZNKSt3__116reverse_iteratorIPNS_6vectorINS1_IiNS_9allocatorIiEEEENS2_IS4_EEEEEptB8ue170006Ev, symObjAddr: 0xB1FC, symBinAddr: 0x10000F5A4, symSize: 0x24 }
  - { offsetInCU: 0x16B9D, offset: 0x16B9D, size: 0x8, addend: 0x0, symName: __ZNKSt3__116reverse_iteratorIPNS_6vectorINS1_IiNS_9allocatorIiEEEENS2_IS4_EEEEEdeB8ue170006Ev, symObjAddr: 0xB220, symBinAddr: 0x10000F5C8, symSize: 0x28 }
  - { offsetInCU: 0x16BD0, offset: 0x16BD0, size: 0x8, addend: 0x0, symName: __ZNSt3__116reverse_iteratorIPNS_6vectorINS1_IiNS_9allocatorIiEEEENS2_IS4_EEEEEC2B8ue170006ES7_, symObjAddr: 0xB248, symBinAddr: 0x10000F5F0, symSize: 0x28 }
  - { offsetInCU: 0x16C07, offset: 0x16C07, size: 0x8, addend: 0x0, symName: __ZNSt3__118__unwrap_iter_implIPNS_6vectorINS1_IiNS_9allocatorIiEEEENS2_IS4_EEEELb1EE8__unwrapB8ue170006ES7_, symObjAddr: 0xB270, symBinAddr: 0x10000F618, symSize: 0x24 }
  - { offsetInCU: 0x16C2A, offset: 0x16C2A, size: 0x8, addend: 0x0, symName: __ZNSt3__118__unwrap_iter_implIPNS_6vectorINS1_IiNS_9allocatorIiEEEENS2_IS4_EEEELb1EE8__rewrapB8ue170006ES7_S7_, symObjAddr: 0xB294, symBinAddr: 0x10000F63C, symSize: 0x58 }
  - { offsetInCU: 0x16C5B, offset: 0x16C5B, size: 0x8, addend: 0x0, symName: __ZNSt3__16vectorINS0_INS0_INS0_IiNS_9allocatorIiEEEENS1_IS3_EEEENS1_IS5_EEEENS1_IS7_EEE21_ConstructTransactionD2B8ue170006Ev, symObjAddr: 0xB2EC, symBinAddr: 0x10000F694, symSize: 0x20 }
  - { offsetInCU: 0x16C84, offset: 0x16C84, size: 0x8, addend: 0x0, symName: __ZNSt3__128__exception_guard_exceptionsINS_6vectorINS1_INS1_INS1_IiNS_9allocatorIiEEEENS2_IS4_EEEENS2_IS6_EEEENS2_IS8_EEE16__destroy_vectorEED2B8ue170006Ev, symObjAddr: 0xB30C, symBinAddr: 0x10000F6B4, symSize: 0x50 }
  - { offsetInCU: 0x16CAC, offset: 0x16CAC, size: 0x8, addend: 0x0, symName: __ZNSt3__16vectorINS0_INS0_INS0_IiNS_9allocatorIiEEEENS1_IS3_EEEENS1_IS5_EEEENS1_IS7_EEE16__destroy_vectorclB8ue170006Ev, symObjAddr: 0xB35C, symBinAddr: 0x10000F704, symSize: 0x90 }
  - { offsetInCU: 0x16CD0, offset: 0x16CD0, size: 0x8, addend: 0x0, symName: __ZNSt3__16vectorINS0_INS0_INS0_IiNS_9allocatorIiEEEENS1_IS3_EEEENS1_IS5_EEEENS1_IS7_EEE7__clearB8ue170006Ev, symObjAddr: 0xB3EC, symBinAddr: 0x10000F794, symSize: 0x28 }
  - { offsetInCU: 0x16CF4, offset: 0x16CF4, size: 0x8, addend: 0x0, symName: __ZNKSt3__16vectorINS0_INS0_INS0_IiNS_9allocatorIiEEEENS1_IS3_EEEENS1_IS5_EEEENS1_IS7_EEE17__annotate_deleteB8ue170006Ev, symObjAddr: 0xB414, symBinAddr: 0x10000F7BC, symSize: 0xD4 }
  - { offsetInCU: 0x16D19, offset: 0x16D19, size: 0x8, addend: 0x0, symName: __ZNSt3__116allocator_traitsINS_9allocatorINS_6vectorINS2_INS2_IiNS1_IiEEEENS1_IS4_EEEENS1_IS6_EEEEEEE10deallocateB8ue170006ERS9_PS8_m, symObjAddr: 0xB4E8, symBinAddr: 0x10000F890, symSize: 0x34 }
  - { offsetInCU: 0x16D5A, offset: 0x16D5A, size: 0x8, addend: 0x0, symName: __ZNSt3__16vectorINS0_INS0_INS0_IiNS_9allocatorIiEEEENS1_IS3_EEEENS1_IS5_EEEENS1_IS7_EEE22__base_destruct_at_endB8ue170006EPS7_, symObjAddr: 0xB51C, symBinAddr: 0x10000F8C4, symSize: 0x8C }
  - { offsetInCU: 0x16D9D, offset: 0x16D9D, size: 0x8, addend: 0x0, symName: __ZNSt3__116allocator_traitsINS_9allocatorINS_6vectorINS2_INS2_IiNS1_IiEEEENS1_IS4_EEEENS1_IS6_EEEEEEE7destroyB8ue170006IS8_vEEvRS9_PT_, symObjAddr: 0xB5A8, symBinAddr: 0x10000F950, symSize: 0x2C }
  - { offsetInCU: 0x16DD9, offset: 0x16DD9, size: 0x8, addend: 0x0, symName: __ZNSt3__19allocatorINS_6vectorINS1_INS1_IiNS0_IiEEEENS0_IS3_EEEENS0_IS5_EEEEE7destroyB8ue170006EPS7_, symObjAddr: 0xB5D4, symBinAddr: 0x10000F97C, symSize: 0x28 }
  - { offsetInCU: 0x16E0C, offset: 0x16E0C, size: 0x8, addend: 0x0, symName: __ZNKSt3__16vectorINS0_INS0_INS0_IiNS_9allocatorIiEEEENS1_IS3_EEEENS1_IS5_EEEENS1_IS7_EEE4sizeB8ue170006Ev, symObjAddr: 0xB5FC, symBinAddr: 0x10000F9A4, symSize: 0x28 }
  - { offsetInCU: 0x16E30, offset: 0x16E30, size: 0x8, addend: 0x0, symName: __ZNSt3__19allocatorINS_6vectorINS1_INS1_IiNS0_IiEEEENS0_IS3_EEEENS0_IS5_EEEEE10deallocateB8ue170006EPS7_m, symObjAddr: 0xB624, symBinAddr: 0x10000F9CC, symSize: 0x44 }
  - { offsetInCU: 0x16E71, offset: 0x16E71, size: 0x8, addend: 0x0, symName: __ZNSt3__16vectorINS0_INS0_INS0_IiNS_9allocatorIiEEEENS1_IS3_EEEENS1_IS5_EEEENS1_IS7_EEED2B8ue170006Ev, symObjAddr: 0xB668, symBinAddr: 0x10000FA10, symSize: 0x40 }
  - { offsetInCU: 0x16E9A, offset: 0x16E9A, size: 0x8, addend: 0x0, symName: __ZNSt3__16vectorINS0_INS0_INS0_INS0_IiNS_9allocatorIiEEEENS1_IS3_EEEENS1_IS5_EEEENS1_IS7_EEEENS1_IS9_EEEC2EmRKS9_, symObjAddr: 0xB6A8, symBinAddr: 0x10000FA50, symSize: 0xDC }
  - { offsetInCU: 0x16EF8, offset: 0x16EF8, size: 0x8, addend: 0x0, symName: __ZNSt3__117__compressed_pairIPNS_6vectorINS1_INS1_INS1_IiNS_9allocatorIiEEEENS2_IS4_EEEENS2_IS6_EEEENS2_IS8_EEEENS2_ISA_EEEC1B8ue170006IDnNS_18__default_init_tagEEEOT_OT0_, symObjAddr: 0xB784, symBinAddr: 0x10000FB2C, symSize: 0x3C }
  - { offsetInCU: 0x16F4F, offset: 0x16F4F, size: 0x8, addend: 0x0, symName: __ZNSt3__16vectorINS0_INS0_INS0_INS0_IiNS_9allocatorIiEEEENS1_IS3_EEEENS1_IS5_EEEENS1_IS7_EEEENS1_IS9_EEE16__destroy_vectorC1B8ue170006ERSB_, symObjAddr: 0xB800, symBinAddr: 0x10000FBA8, symSize: 0x34 }
  - { offsetInCU: 0x16F86, offset: 0x16F86, size: 0x8, addend: 0x0, symName: __ZNSt3__16vectorINS0_INS0_INS0_INS0_IiNS_9allocatorIiEEEENS1_IS3_EEEENS1_IS5_EEEENS1_IS7_EEEENS1_IS9_EEE11__vallocateB8ue170006Em, symObjAddr: 0xB834, symBinAddr: 0x10000FBDC, symSize: 0xB4 }
  - { offsetInCU: 0x16FC9, offset: 0x16FC9, size: 0x8, addend: 0x0, symName: __ZNSt3__16vectorINS0_INS0_INS0_INS0_IiNS_9allocatorIiEEEENS1_IS3_EEEENS1_IS5_EEEENS1_IS7_EEEENS1_IS9_EEE18__construct_at_endEmRKS9_, symObjAddr: 0xB8E8, symBinAddr: 0x10000FC90, symSize: 0xD0 }
  - { offsetInCU: 0x17049, offset: 0x17049, size: 0x8, addend: 0x0, symName: __ZNSt3__128__exception_guard_exceptionsINS_6vectorINS1_INS1_INS1_INS1_IiNS_9allocatorIiEEEENS2_IS4_EEEENS2_IS6_EEEENS2_IS8_EEEENS2_ISA_EEE16__destroy_vectorEE10__completeB8ue170006Ev, symObjAddr: 0xB9B8, symBinAddr: 0x10000FD60, symSize: 0x1C }
  - { offsetInCU: 0x1706E, offset: 0x1706E, size: 0x8, addend: 0x0, symName: __ZNSt3__128__exception_guard_exceptionsINS_6vectorINS1_INS1_INS1_INS1_IiNS_9allocatorIiEEEENS2_IS4_EEEENS2_IS6_EEEENS2_IS8_EEEENS2_ISA_EEE16__destroy_vectorEED1B8ue170006Ev, symObjAddr: 0xB9D4, symBinAddr: 0x10000FD7C, symSize: 0x2C }
  - { offsetInCU: 0x17097, offset: 0x17097, size: 0x8, addend: 0x0, symName: __ZNSt3__117__compressed_pairIPNS_6vectorINS1_INS1_INS1_IiNS_9allocatorIiEEEENS2_IS4_EEEENS2_IS6_EEEENS2_IS8_EEEENS2_ISA_EEEC2B8ue170006IDnNS_18__default_init_tagEEEOT_OT0_, symObjAddr: 0xBA00, symBinAddr: 0x10000FDA8, symSize: 0x40 }
  - { offsetInCU: 0x170EE, offset: 0x170EE, size: 0x8, addend: 0x0, symName: __ZNSt3__122__compressed_pair_elemIPNS_6vectorINS1_INS1_INS1_IiNS_9allocatorIiEEEENS2_IS4_EEEENS2_IS6_EEEENS2_IS8_EEEELi0ELb0EEC2B8ue170006IDnvEEOT_, symObjAddr: 0xBA40, symBinAddr: 0x10000FDE8, symSize: 0x1C }
  - { offsetInCU: 0x1712F, offset: 0x1712F, size: 0x8, addend: 0x0, symName: __ZNSt3__122__compressed_pair_elemINS_9allocatorINS_6vectorINS2_INS2_INS2_IiNS1_IiEEEENS1_IS4_EEEENS1_IS6_EEEENS1_IS8_EEEEEELi1ELb1EEC2B8ue170006ENS_18__default_init_tagE, symObjAddr: 0xBA5C, symBinAddr: 0x10000FE04, symSize: 0x2C }
  - { offsetInCU: 0x17163, offset: 0x17163, size: 0x8, addend: 0x0, symName: __ZNSt3__19allocatorINS_6vectorINS1_INS1_INS1_IiNS0_IiEEEENS0_IS3_EEEENS0_IS5_EEEENS0_IS7_EEEEEC2B8ue170006Ev, symObjAddr: 0xBA88, symBinAddr: 0x10000FE30, symSize: 0x2C }
  - { offsetInCU: 0x1718C, offset: 0x1718C, size: 0x8, addend: 0x0, symName: __ZNSt3__116__non_trivial_ifILb1ENS_9allocatorINS_6vectorINS2_INS2_INS2_IiNS1_IiEEEENS1_IS4_EEEENS1_IS6_EEEENS1_IS8_EEEEEEEC2B8ue170006Ev, symObjAddr: 0xBAB4, symBinAddr: 0x10000FE5C, symSize: 0x14 }
  - { offsetInCU: 0x171B5, offset: 0x171B5, size: 0x8, addend: 0x0, symName: __ZNSt3__128__exception_guard_exceptionsINS_6vectorINS1_INS1_INS1_INS1_IiNS_9allocatorIiEEEENS2_IS4_EEEENS2_IS6_EEEENS2_IS8_EEEENS2_ISA_EEE16__destroy_vectorEEC1B8ue170006ESD_, symObjAddr: 0xBAC8, symBinAddr: 0x10000FE70, symSize: 0x34 }
  - { offsetInCU: 0x171EC, offset: 0x171EC, size: 0x8, addend: 0x0, symName: __ZNSt3__128__exception_guard_exceptionsINS_6vectorINS1_INS1_INS1_INS1_IiNS_9allocatorIiEEEENS2_IS4_EEEENS2_IS6_EEEENS2_IS8_EEEENS2_ISA_EEE16__destroy_vectorEEC2B8ue170006ESD_, symObjAddr: 0xBAFC, symBinAddr: 0x10000FEA4, symSize: 0x24 }
  - { offsetInCU: 0x17223, offset: 0x17223, size: 0x8, addend: 0x0, symName: __ZNSt3__16vectorINS0_INS0_INS0_INS0_IiNS_9allocatorIiEEEENS1_IS3_EEEENS1_IS5_EEEENS1_IS7_EEEENS1_IS9_EEE16__destroy_vectorC2B8ue170006ERSB_, symObjAddr: 0xBB20, symBinAddr: 0x10000FEC8, symSize: 0x20 }
  - { offsetInCU: 0x1725B, offset: 0x1725B, size: 0x8, addend: 0x0, symName: __ZNKSt3__16vectorINS0_INS0_INS0_INS0_IiNS_9allocatorIiEEEENS1_IS3_EEEENS1_IS5_EEEENS1_IS7_EEEENS1_IS9_EEE8max_sizeEv, symObjAddr: 0xBB40, symBinAddr: 0x10000FEE8, symSize: 0x60 }
  - { offsetInCU: 0x17281, offset: 0x17281, size: 0x8, addend: 0x0, symName: __ZNKSt3__16vectorINS0_INS0_INS0_INS0_IiNS_9allocatorIiEEEENS1_IS3_EEEENS1_IS5_EEEENS1_IS7_EEEENS1_IS9_EEE20__throw_length_errorB8ue170006Ev, symObjAddr: 0xBBA0, symBinAddr: 0x10000FF48, symSize: 0x1C }
  - { offsetInCU: 0x172A5, offset: 0x172A5, size: 0x8, addend: 0x0, symName: __ZNSt3__16vectorINS0_INS0_INS0_INS0_IiNS_9allocatorIiEEEENS1_IS3_EEEENS1_IS5_EEEENS1_IS7_EEEENS1_IS9_EEE7__allocB8ue170006Ev, symObjAddr: 0xBBFC, symBinAddr: 0x10000FFA4, symSize: 0x28 }
  - { offsetInCU: 0x172C9, offset: 0x172C9, size: 0x8, addend: 0x0, symName: __ZNSt3__16vectorINS0_INS0_INS0_INS0_IiNS_9allocatorIiEEEENS1_IS3_EEEENS1_IS5_EEEENS1_IS7_EEEENS1_IS9_EEE9__end_capB8ue170006Ev, symObjAddr: 0xBC24, symBinAddr: 0x10000FFCC, symSize: 0x28 }
  - { offsetInCU: 0x172ED, offset: 0x172ED, size: 0x8, addend: 0x0, symName: __ZNKSt3__16vectorINS0_INS0_INS0_INS0_IiNS_9allocatorIiEEEENS1_IS3_EEEENS1_IS5_EEEENS1_IS7_EEEENS1_IS9_EEE14__annotate_newB8ue170006Em, symObjAddr: 0xBC4C, symBinAddr: 0x10000FFF4, symSize: 0xC8 }
  - { offsetInCU: 0x1732B, offset: 0x1732B, size: 0x8, addend: 0x0, symName: __ZNSt3__116allocator_traitsINS_9allocatorINS_6vectorINS2_INS2_INS2_IiNS1_IiEEEENS1_IS4_EEEENS1_IS6_EEEENS1_IS8_EEEEEEE8max_sizeB8ue170006ISB_vEEmRKSB_, symObjAddr: 0xBD14, symBinAddr: 0x1000100BC, symSize: 0x24 }
  - { offsetInCU: 0x17358, offset: 0x17358, size: 0x8, addend: 0x0, symName: __ZNKSt3__16vectorINS0_INS0_INS0_INS0_IiNS_9allocatorIiEEEENS1_IS3_EEEENS1_IS5_EEEENS1_IS7_EEEENS1_IS9_EEE7__allocB8ue170006Ev, symObjAddr: 0xBD38, symBinAddr: 0x1000100E0, symSize: 0x28 }
  - { offsetInCU: 0x1737D, offset: 0x1737D, size: 0x8, addend: 0x0, symName: __ZNKSt3__19allocatorINS_6vectorINS1_INS1_INS1_IiNS0_IiEEEENS0_IS3_EEEENS0_IS5_EEEENS0_IS7_EEEEE8max_sizeB8ue170006Ev, symObjAddr: 0xBD60, symBinAddr: 0x100010108, symSize: 0x18 }
  - { offsetInCU: 0x173A1, offset: 0x173A1, size: 0x8, addend: 0x0, symName: __ZNKSt3__117__compressed_pairIPNS_6vectorINS1_INS1_INS1_IiNS_9allocatorIiEEEENS2_IS4_EEEENS2_IS6_EEEENS2_IS8_EEEENS2_ISA_EEE6secondB8ue170006Ev, symObjAddr: 0xBD78, symBinAddr: 0x100010120, symSize: 0x24 }
  - { offsetInCU: 0x173C6, offset: 0x173C6, size: 0x8, addend: 0x0, symName: __ZNKSt3__122__compressed_pair_elemINS_9allocatorINS_6vectorINS2_INS2_INS2_IiNS1_IiEEEENS1_IS4_EEEENS1_IS6_EEEENS1_IS8_EEEEEELi1ELb1EE5__getB8ue170006Ev, symObjAddr: 0xBD9C, symBinAddr: 0x100010144, symSize: 0x14 }
  - { offsetInCU: 0x173EA, offset: 0x173EA, size: 0x8, addend: 0x0, symName: __ZNSt3__19allocatorINS_6vectorINS1_INS1_INS1_IiNS0_IiEEEENS0_IS3_EEEENS0_IS5_EEEENS0_IS7_EEEEE8allocateB8ue170006Em, symObjAddr: 0xBDB0, symBinAddr: 0x100010158, symSize: 0x5C }
  - { offsetInCU: 0x1741C, offset: 0x1741C, size: 0x8, addend: 0x0, symName: __ZNSt3__117__compressed_pairIPNS_6vectorINS1_INS1_INS1_IiNS_9allocatorIiEEEENS2_IS4_EEEENS2_IS6_EEEENS2_IS8_EEEENS2_ISA_EEE6secondB8ue170006Ev, symObjAddr: 0xBE0C, symBinAddr: 0x1000101B4, symSize: 0x24 }
  - { offsetInCU: 0x17441, offset: 0x17441, size: 0x8, addend: 0x0, symName: __ZNSt3__122__compressed_pair_elemINS_9allocatorINS_6vectorINS2_INS2_INS2_IiNS1_IiEEEENS1_IS4_EEEENS1_IS6_EEEENS1_IS8_EEEEEELi1ELb1EE5__getB8ue170006Ev, symObjAddr: 0xBE30, symBinAddr: 0x1000101D8, symSize: 0x14 }
  - { offsetInCU: 0x17465, offset: 0x17465, size: 0x8, addend: 0x0, symName: __ZNSt3__117__compressed_pairIPNS_6vectorINS1_INS1_INS1_IiNS_9allocatorIiEEEENS2_IS4_EEEENS2_IS6_EEEENS2_IS8_EEEENS2_ISA_EEE5firstB8ue170006Ev, symObjAddr: 0xBE44, symBinAddr: 0x1000101EC, symSize: 0x24 }
  - { offsetInCU: 0x1748A, offset: 0x1748A, size: 0x8, addend: 0x0, symName: __ZNSt3__122__compressed_pair_elemIPNS_6vectorINS1_INS1_INS1_IiNS_9allocatorIiEEEENS2_IS4_EEEENS2_IS6_EEEENS2_IS8_EEEELi0ELb0EE5__getB8ue170006Ev, symObjAddr: 0xBE68, symBinAddr: 0x100010210, symSize: 0x14 }
  - { offsetInCU: 0x174AF, offset: 0x174AF, size: 0x8, addend: 0x0, symName: __ZNKSt3__16vectorINS0_INS0_INS0_INS0_IiNS_9allocatorIiEEEENS1_IS3_EEEENS1_IS5_EEEENS1_IS7_EEEENS1_IS9_EEE31__annotate_contiguous_containerB8ue170006EPKvSD_SD_SD_, symObjAddr: 0xBE7C, symBinAddr: 0x100010224, symSize: 0x20 }
  - { offsetInCU: 0x174FF, offset: 0x174FF, size: 0x8, addend: 0x0, symName: __ZNKSt3__16vectorINS0_INS0_INS0_INS0_IiNS_9allocatorIiEEEENS1_IS3_EEEENS1_IS5_EEEENS1_IS7_EEEENS1_IS9_EEE4dataB8ue170006Ev, symObjAddr: 0xBE9C, symBinAddr: 0x100010244, symSize: 0x28 }
  - { offsetInCU: 0x17523, offset: 0x17523, size: 0x8, addend: 0x0, symName: __ZNKSt3__16vectorINS0_INS0_INS0_INS0_IiNS_9allocatorIiEEEENS1_IS3_EEEENS1_IS5_EEEENS1_IS7_EEEENS1_IS9_EEE8capacityB8ue170006Ev, symObjAddr: 0xBEC4, symBinAddr: 0x10001026C, symSize: 0x40 }
  - { offsetInCU: 0x17547, offset: 0x17547, size: 0x8, addend: 0x0, symName: __ZNKSt3__16vectorINS0_INS0_INS0_INS0_IiNS_9allocatorIiEEEENS1_IS3_EEEENS1_IS5_EEEENS1_IS7_EEEENS1_IS9_EEE9__end_capB8ue170006Ev, symObjAddr: 0xBF18, symBinAddr: 0x1000102C0, symSize: 0x28 }
  - { offsetInCU: 0x1756B, offset: 0x1756B, size: 0x8, addend: 0x0, symName: __ZNKSt3__117__compressed_pairIPNS_6vectorINS1_INS1_INS1_IiNS_9allocatorIiEEEENS2_IS4_EEEENS2_IS6_EEEENS2_IS8_EEEENS2_ISA_EEE5firstB8ue170006Ev, symObjAddr: 0xBF40, symBinAddr: 0x1000102E8, symSize: 0x24 }
  - { offsetInCU: 0x17590, offset: 0x17590, size: 0x8, addend: 0x0, symName: __ZNKSt3__122__compressed_pair_elemIPNS_6vectorINS1_INS1_INS1_IiNS_9allocatorIiEEEENS2_IS4_EEEENS2_IS6_EEEENS2_IS8_EEEELi0ELb0EE5__getB8ue170006Ev, symObjAddr: 0xBF64, symBinAddr: 0x10001030C, symSize: 0x14 }
  - { offsetInCU: 0x175CE, offset: 0x175CE, size: 0x8, addend: 0x0, symName: __ZNSt3__16vectorINS0_INS0_INS0_INS0_IiNS_9allocatorIiEEEENS1_IS3_EEEENS1_IS5_EEEENS1_IS7_EEEENS1_IS9_EEE21_ConstructTransactionC1B8ue170006ERSB_m, symObjAddr: 0xBF78, symBinAddr: 0x100010320, symSize: 0x3C }
  - { offsetInCU: 0x17615, offset: 0x17615, size: 0x8, addend: 0x0, symName: __ZNSt3__116allocator_traitsINS_9allocatorINS_6vectorINS2_INS2_INS2_IiNS1_IiEEEENS1_IS4_EEEENS1_IS6_EEEENS1_IS8_EEEEEEE9constructB8ue170006ISA_JRKSA_EvEEvRSB_PT_DpOT0_, symObjAddr: 0xBFB4, symBinAddr: 0x10001035C, symSize: 0x34 }
  - { offsetInCU: 0x1766C, offset: 0x1766C, size: 0x8, addend: 0x0, symName: __ZNSt3__16vectorINS0_INS0_INS0_INS0_IiNS_9allocatorIiEEEENS1_IS3_EEEENS1_IS5_EEEENS1_IS7_EEEENS1_IS9_EEE21_ConstructTransactionD1B8ue170006Ev, symObjAddr: 0xBFE8, symBinAddr: 0x100010390, symSize: 0x2C }
  - { offsetInCU: 0x17695, offset: 0x17695, size: 0x8, addend: 0x0, symName: __ZNSt3__16vectorINS0_INS0_INS0_INS0_IiNS_9allocatorIiEEEENS1_IS3_EEEENS1_IS5_EEEENS1_IS7_EEEENS1_IS9_EEE21_ConstructTransactionC2B8ue170006ERSB_m, symObjAddr: 0xC014, symBinAddr: 0x1000103BC, symSize: 0x4C }
  - { offsetInCU: 0x176DB, offset: 0x176DB, size: 0x8, addend: 0x0, symName: __ZNSt3__19allocatorINS_6vectorINS1_INS1_INS1_IiNS0_IiEEEENS0_IS3_EEEENS0_IS5_EEEENS0_IS7_EEEEE9constructB8ue170006IS9_JRKS9_EEEvPT_DpOT0_, symObjAddr: 0xC060, symBinAddr: 0x100010408, symSize: 0x30 }
  - { offsetInCU: 0x17730, offset: 0x17730, size: 0x8, addend: 0x0, symName: __ZNSt3__16vectorINS0_INS0_INS0_IiNS_9allocatorIiEEEENS1_IS3_EEEENS1_IS5_EEEENS1_IS7_EEEC1ERKS9_, symObjAddr: 0xC090, symBinAddr: 0x100010438, symSize: 0x34 }
  - { offsetInCU: 0x1776A, offset: 0x1776A, size: 0x8, addend: 0x0, symName: __ZNSt3__16vectorINS0_INS0_INS0_IiNS_9allocatorIiEEEENS1_IS3_EEEENS1_IS5_EEEENS1_IS7_EEEC2ERKS9_, symObjAddr: 0xC0C4, symBinAddr: 0x10001046C, symSize: 0x94 }
  - { offsetInCU: 0x177A4, offset: 0x177A4, size: 0x8, addend: 0x0, symName: __ZNSt3__116allocator_traitsINS_9allocatorINS_6vectorINS2_INS2_IiNS1_IiEEEENS1_IS4_EEEENS1_IS6_EEEEEEE37select_on_container_copy_constructionB8ue170006IS9_vvEES9_RKS9_, symObjAddr: 0xC158, symBinAddr: 0x100010500, symSize: 0x10 }
  - { offsetInCU: 0x177D8, offset: 0x177D8, size: 0x8, addend: 0x0, symName: __ZNSt3__117__compressed_pairIPNS_6vectorINS1_INS1_IiNS_9allocatorIiEEEENS2_IS4_EEEENS2_IS6_EEEENS2_IS8_EEEC1B8ue170006IDnSA_EEOT_OT0_, symObjAddr: 0xC168, symBinAddr: 0x100010510, symSize: 0x3C }
  - { offsetInCU: 0x1782E, offset: 0x1782E, size: 0x8, addend: 0x0, symName: __ZNSt3__16vectorINS0_INS0_INS0_IiNS_9allocatorIiEEEENS1_IS3_EEEENS1_IS5_EEEENS1_IS7_EEE16__init_with_sizeB8ue170006IPS7_SB_EEvT_T0_m, symObjAddr: 0xC1A4, symBinAddr: 0x10001054C, symSize: 0xB8 }
  - { offsetInCU: 0x178A1, offset: 0x178A1, size: 0x8, addend: 0x0, symName: __ZNSt3__117__compressed_pairIPNS_6vectorINS1_INS1_IiNS_9allocatorIiEEEENS2_IS4_EEEENS2_IS6_EEEENS2_IS8_EEEC2B8ue170006IDnSA_EEOT_OT0_, symObjAddr: 0xC25C, symBinAddr: 0x100010604, symSize: 0x44 }
  - { offsetInCU: 0x178F8, offset: 0x178F8, size: 0x8, addend: 0x0, symName: __ZNSt3__122__compressed_pair_elemINS_9allocatorINS_6vectorINS2_INS2_IiNS1_IiEEEENS1_IS4_EEEENS1_IS6_EEEEEELi1ELb1EEC2B8ue170006IS9_vEEOT_, symObjAddr: 0xC2A0, symBinAddr: 0x100010648, symSize: 0x18 }
  - { offsetInCU: 0x17939, offset: 0x17939, size: 0x8, addend: 0x0, symName: __ZNSt3__16vectorINS0_INS0_INS0_IiNS_9allocatorIiEEEENS1_IS3_EEEENS1_IS5_EEEENS1_IS7_EEE18__construct_at_endIPS7_SB_EEvT_T0_m, symObjAddr: 0xC2B8, symBinAddr: 0x100010660, symSize: 0x8C }
  - { offsetInCU: 0x179CC, offset: 0x179CC, size: 0x8, addend: 0x0, symName: __ZNSt3__14pairIPNS_6vectorINS1_INS1_IiNS_9allocatorIiEEEENS2_IS4_EEEENS2_IS6_EEEES9_EC1B8ue170006IS9_S9_LPv0EEEOT_OT0_, symObjAddr: 0xC5B0, symBinAddr: 0x100010958, symSize: 0x3C }
  - { offsetInCU: 0x17A29, offset: 0x17A29, size: 0x8, addend: 0x0, symName: __ZNSt3__14pairIPNS_6vectorINS1_INS1_IiNS_9allocatorIiEEEENS2_IS4_EEEENS2_IS6_EEEES9_EC2B8ue170006IS9_S9_LPv0EEEOT_OT0_, symObjAddr: 0xC5EC, symBinAddr: 0x100010994, symSize: 0x34 }
  - { offsetInCU: 0x17A86, offset: 0x17A86, size: 0x8, addend: 0x0, symName: __ZNSt3__129_AllocatorDestroyRangeReverseINS_9allocatorINS_6vectorINS2_INS2_IiNS1_IiEEEENS1_IS4_EEEENS1_IS6_EEEEEEPS8_EC1B8ue170006ERS9_RSA_SD_, symObjAddr: 0xC66C, symBinAddr: 0x100010A14, symSize: 0x44 }
  - { offsetInCU: 0x17ADC, offset: 0x17ADC, size: 0x8, addend: 0x0, symName: __ZNSt3__116allocator_traitsINS_9allocatorINS_6vectorINS2_INS2_IiNS1_IiEEEENS1_IS4_EEEENS1_IS6_EEEEEEE9constructB8ue170006IS8_JRS8_EvEEvRS9_PT_DpOT0_, symObjAddr: 0xC6B0, symBinAddr: 0x100010A58, symSize: 0x34 }
  - { offsetInCU: 0x17B33, offset: 0x17B33, size: 0x8, addend: 0x0, symName: __ZNSt3__128__exception_guard_exceptionsINS_29_AllocatorDestroyRangeReverseINS_9allocatorINS_6vectorINS3_INS3_IiNS2_IiEEEENS2_IS5_EEEENS2_IS7_EEEEEEPS9_EEE10__completeB8ue170006Ev, symObjAddr: 0xC6E4, symBinAddr: 0x100010A8C, symSize: 0x1C }
  - { offsetInCU: 0x17B58, offset: 0x17B58, size: 0x8, addend: 0x0, symName: __ZNSt3__128__exception_guard_exceptionsINS_29_AllocatorDestroyRangeReverseINS_9allocatorINS_6vectorINS3_INS3_IiNS2_IiEEEENS2_IS5_EEEENS2_IS7_EEEEEEPS9_EEED1B8ue170006Ev, symObjAddr: 0xC700, symBinAddr: 0x100010AA8, symSize: 0x2C }
  - { offsetInCU: 0x17B81, offset: 0x17B81, size: 0x8, addend: 0x0, symName: __ZNSt3__128__exception_guard_exceptionsINS_29_AllocatorDestroyRangeReverseINS_9allocatorINS_6vectorINS3_INS3_IiNS2_IiEEEENS2_IS5_EEEENS2_IS7_EEEEEEPS9_EEEC1B8ue170006ESC_, symObjAddr: 0xC72C, symBinAddr: 0x100010AD4, symSize: 0x34 }
  - { offsetInCU: 0x17BB9, offset: 0x17BB9, size: 0x8, addend: 0x0, symName: __ZNSt3__128__exception_guard_exceptionsINS_29_AllocatorDestroyRangeReverseINS_9allocatorINS_6vectorINS3_INS3_IiNS2_IiEEEENS2_IS5_EEEENS2_IS7_EEEEEEPS9_EEEC2B8ue170006ESC_, symObjAddr: 0xC760, symBinAddr: 0x100010B08, symSize: 0x30 }
  - { offsetInCU: 0x17BF1, offset: 0x17BF1, size: 0x8, addend: 0x0, symName: __ZNSt3__129_AllocatorDestroyRangeReverseINS_9allocatorINS_6vectorINS2_INS2_IiNS1_IiEEEENS1_IS4_EEEENS1_IS6_EEEEEEPS8_EC2B8ue170006ERS9_RSA_SD_, symObjAddr: 0xC790, symBinAddr: 0x100010B38, symSize: 0x38 }
  - { offsetInCU: 0x17C46, offset: 0x17C46, size: 0x8, addend: 0x0, symName: __ZNSt3__19allocatorINS_6vectorINS1_INS1_IiNS0_IiEEEENS0_IS3_EEEENS0_IS5_EEEEE9constructB8ue170006IS7_JRS7_EEEvPT_DpOT0_, symObjAddr: 0xC7C8, symBinAddr: 0x100010B70, symSize: 0x30 }
  - { offsetInCU: 0x17C9B, offset: 0x17C9B, size: 0x8, addend: 0x0, symName: __ZNSt3__128__exception_guard_exceptionsINS_29_AllocatorDestroyRangeReverseINS_9allocatorINS_6vectorINS3_INS3_IiNS2_IiEEEENS2_IS5_EEEENS2_IS7_EEEEEEPS9_EEED2B8ue170006Ev, symObjAddr: 0xC7F8, symBinAddr: 0x100010BA0, symSize: 0x50 }
  - { offsetInCU: 0x17CC3, offset: 0x17CC3, size: 0x8, addend: 0x0, symName: __ZNKSt3__129_AllocatorDestroyRangeReverseINS_9allocatorINS_6vectorINS2_INS2_IiNS1_IiEEEENS1_IS4_EEEENS1_IS6_EEEEEEPS8_EclB8ue170006Ev, symObjAddr: 0xC848, symBinAddr: 0x100010BF0, symSize: 0x68 }
  - { offsetInCU: 0x17CE8, offset: 0x17CE8, size: 0x8, addend: 0x0, symName: __ZNSt3__116reverse_iteratorIPNS_6vectorINS1_INS1_IiNS_9allocatorIiEEEENS2_IS4_EEEENS2_IS6_EEEEEC1B8ue170006ES9_, symObjAddr: 0xC920, symBinAddr: 0x100010CC8, symSize: 0x34 }
  - { offsetInCU: 0x17D1F, offset: 0x17D1F, size: 0x8, addend: 0x0, symName: __ZNSt3__116reverse_iteratorIPNS_6vectorINS1_INS1_IiNS_9allocatorIiEEEENS2_IS4_EEEENS2_IS6_EEEEEppB8ue170006Ev, symObjAddr: 0xC9C0, symBinAddr: 0x100010D68, symSize: 0x20 }
  - { offsetInCU: 0x17D44, offset: 0x17D44, size: 0x8, addend: 0x0, symName: __ZNKSt3__116reverse_iteratorIPNS_6vectorINS1_INS1_IiNS_9allocatorIiEEEENS2_IS4_EEEENS2_IS6_EEEEE4baseB8ue170006Ev, symObjAddr: 0xC9E0, symBinAddr: 0x100010D88, symSize: 0x18 }
  - { offsetInCU: 0x17D6E, offset: 0x17D6E, size: 0x8, addend: 0x0, symName: __ZNSt3__119__to_address_helperINS_16reverse_iteratorIPNS_6vectorINS2_INS2_IiNS_9allocatorIiEEEENS3_IS5_EEEENS3_IS7_EEEEEEvE6__callB8ue170006ERKSB_, symObjAddr: 0xC9F8, symBinAddr: 0x100010DA0, symSize: 0x38 }
  - { offsetInCU: 0x17D90, offset: 0x17D90, size: 0x8, addend: 0x0, symName: __ZNKSt3__116reverse_iteratorIPNS_6vectorINS1_INS1_IiNS_9allocatorIiEEEENS2_IS4_EEEENS2_IS6_EEEEEptB8ue170006Ev, symObjAddr: 0xCA30, symBinAddr: 0x100010DD8, symSize: 0x24 }
  - { offsetInCU: 0x17DB5, offset: 0x17DB5, size: 0x8, addend: 0x0, symName: __ZNKSt3__116reverse_iteratorIPNS_6vectorINS1_INS1_IiNS_9allocatorIiEEEENS2_IS4_EEEENS2_IS6_EEEEEdeB8ue170006Ev, symObjAddr: 0xCA54, symBinAddr: 0x100010DFC, symSize: 0x28 }
  - { offsetInCU: 0x17DE8, offset: 0x17DE8, size: 0x8, addend: 0x0, symName: __ZNSt3__116reverse_iteratorIPNS_6vectorINS1_INS1_IiNS_9allocatorIiEEEENS2_IS4_EEEENS2_IS6_EEEEEC2B8ue170006ES9_, symObjAddr: 0xCA7C, symBinAddr: 0x100010E24, symSize: 0x28 }
  - { offsetInCU: 0x17E1F, offset: 0x17E1F, size: 0x8, addend: 0x0, symName: __ZNSt3__118__unwrap_iter_implIPNS_6vectorINS1_INS1_IiNS_9allocatorIiEEEENS2_IS4_EEEENS2_IS6_EEEELb1EE8__unwrapB8ue170006ES9_, symObjAddr: 0xCAA4, symBinAddr: 0x100010E4C, symSize: 0x24 }
  - { offsetInCU: 0x17E42, offset: 0x17E42, size: 0x8, addend: 0x0, symName: __ZNSt3__118__unwrap_iter_implIPNS_6vectorINS1_INS1_IiNS_9allocatorIiEEEENS2_IS4_EEEENS2_IS6_EEEELb1EE8__rewrapB8ue170006ES9_S9_, symObjAddr: 0xCAC8, symBinAddr: 0x100010E70, symSize: 0x58 }
  - { offsetInCU: 0x17E73, offset: 0x17E73, size: 0x8, addend: 0x0, symName: __ZNSt3__16vectorINS0_INS0_INS0_INS0_IiNS_9allocatorIiEEEENS1_IS3_EEEENS1_IS5_EEEENS1_IS7_EEEENS1_IS9_EEE21_ConstructTransactionD2B8ue170006Ev, symObjAddr: 0xCB20, symBinAddr: 0x100010EC8, symSize: 0x20 }
  - { offsetInCU: 0x17E9C, offset: 0x17E9C, size: 0x8, addend: 0x0, symName: __ZNSt3__128__exception_guard_exceptionsINS_6vectorINS1_INS1_INS1_INS1_IiNS_9allocatorIiEEEENS2_IS4_EEEENS2_IS6_EEEENS2_IS8_EEEENS2_ISA_EEE16__destroy_vectorEED2B8ue170006Ev, symObjAddr: 0xCB40, symBinAddr: 0x100010EE8, symSize: 0x50 }
  - { offsetInCU: 0x17EC4, offset: 0x17EC4, size: 0x8, addend: 0x0, symName: __ZNSt3__16vectorINS0_INS0_INS0_INS0_IiNS_9allocatorIiEEEENS1_IS3_EEEENS1_IS5_EEEENS1_IS7_EEEENS1_IS9_EEE16__destroy_vectorclB8ue170006Ev, symObjAddr: 0xCB90, symBinAddr: 0x100010F38, symSize: 0x90 }
  - { offsetInCU: 0x17EE8, offset: 0x17EE8, size: 0x8, addend: 0x0, symName: __ZNSt3__16vectorINS0_INS0_INS0_INS0_IiNS_9allocatorIiEEEENS1_IS3_EEEENS1_IS5_EEEENS1_IS7_EEEENS1_IS9_EEE7__clearB8ue170006Ev, symObjAddr: 0xCC20, symBinAddr: 0x100010FC8, symSize: 0x28 }
  - { offsetInCU: 0x17F0C, offset: 0x17F0C, size: 0x8, addend: 0x0, symName: __ZNKSt3__16vectorINS0_INS0_INS0_INS0_IiNS_9allocatorIiEEEENS1_IS3_EEEENS1_IS5_EEEENS1_IS7_EEEENS1_IS9_EEE17__annotate_deleteB8ue170006Ev, symObjAddr: 0xCC48, symBinAddr: 0x100010FF0, symSize: 0xD4 }
  - { offsetInCU: 0x17F31, offset: 0x17F31, size: 0x8, addend: 0x0, symName: __ZNSt3__116allocator_traitsINS_9allocatorINS_6vectorINS2_INS2_INS2_IiNS1_IiEEEENS1_IS4_EEEENS1_IS6_EEEENS1_IS8_EEEEEEE10deallocateB8ue170006ERSB_PSA_m, symObjAddr: 0xCD1C, symBinAddr: 0x1000110C4, symSize: 0x34 }
  - { offsetInCU: 0x17F72, offset: 0x17F72, size: 0x8, addend: 0x0, symName: __ZNSt3__16vectorINS0_INS0_INS0_INS0_IiNS_9allocatorIiEEEENS1_IS3_EEEENS1_IS5_EEEENS1_IS7_EEEENS1_IS9_EEE22__base_destruct_at_endB8ue170006EPS9_, symObjAddr: 0xCD50, symBinAddr: 0x1000110F8, symSize: 0x8C }
  - { offsetInCU: 0x17FB5, offset: 0x17FB5, size: 0x8, addend: 0x0, symName: __ZNSt3__116allocator_traitsINS_9allocatorINS_6vectorINS2_INS2_INS2_IiNS1_IiEEEENS1_IS4_EEEENS1_IS6_EEEENS1_IS8_EEEEEEE7destroyB8ue170006ISA_vEEvRSB_PT_, symObjAddr: 0xCDDC, symBinAddr: 0x100011184, symSize: 0x2C }
  - { offsetInCU: 0x17FF1, offset: 0x17FF1, size: 0x8, addend: 0x0, symName: __ZNSt3__19allocatorINS_6vectorINS1_INS1_INS1_IiNS0_IiEEEENS0_IS3_EEEENS0_IS5_EEEENS0_IS7_EEEEE7destroyB8ue170006EPS9_, symObjAddr: 0xCE08, symBinAddr: 0x1000111B0, symSize: 0x28 }
  - { offsetInCU: 0x18024, offset: 0x18024, size: 0x8, addend: 0x0, symName: __ZNKSt3__16vectorINS0_INS0_INS0_INS0_IiNS_9allocatorIiEEEENS1_IS3_EEEENS1_IS5_EEEENS1_IS7_EEEENS1_IS9_EEE4sizeB8ue170006Ev, symObjAddr: 0xCE30, symBinAddr: 0x1000111D8, symSize: 0x28 }
  - { offsetInCU: 0x18048, offset: 0x18048, size: 0x8, addend: 0x0, symName: __ZNSt3__19allocatorINS_6vectorINS1_INS1_INS1_IiNS0_IiEEEENS0_IS3_EEEENS0_IS5_EEEENS0_IS7_EEEEE10deallocateB8ue170006EPS9_m, symObjAddr: 0xCE58, symBinAddr: 0x100011200, symSize: 0x44 }
  - { offsetInCU: 0x18089, offset: 0x18089, size: 0x8, addend: 0x0, symName: __ZNSt3__16vectorINS0_INS0_INS0_INS0_IiNS_9allocatorIiEEEENS1_IS3_EEEENS1_IS5_EEEENS1_IS7_EEEENS1_IS9_EEED2B8ue170006Ev, symObjAddr: 0xCE9C, symBinAddr: 0x100011244, symSize: 0x40 }
  - { offsetInCU: 0x180B2, offset: 0x180B2, size: 0x8, addend: 0x0, symName: __ZNSt3__111char_traitsIcE6lengthB8ue170006EPKc, symObjAddr: 0xD0C8, symBinAddr: 0x100011470, symSize: 0x34 }
  - { offsetInCU: 0x180F3, offset: 0x180F3, size: 0x8, addend: 0x0, symName: __ZNKSt3__113basic_ostreamIcNS_11char_traitsIcEEE6sentrycvbB8ue170006Ev, symObjAddr: 0xD0FC, symBinAddr: 0x1000114A4, symSize: 0x1C }
  - { offsetInCU: 0x18118, offset: 0x18118, size: 0x8, addend: 0x0, symName: __ZNSt3__119ostreambuf_iteratorIcNS_11char_traitsIcEEEC1B8ue170006ERNS_13basic_ostreamIcS2_EE, symObjAddr: 0xD358, symBinAddr: 0x100011700, symSize: 0x34 }
  - { offsetInCU: 0x1814F, offset: 0x1814F, size: 0x8, addend: 0x0, symName: __ZNKSt3__18ios_base5flagsB8ue170006Ev, symObjAddr: 0xD38C, symBinAddr: 0x100011734, symSize: 0x18 }
  - { offsetInCU: 0x18176, offset: 0x18176, size: 0x8, addend: 0x0, symName: __ZNKSt3__19basic_iosIcNS_11char_traitsIcEEE4fillB8ue170006Ev, symObjAddr: 0xD3A4, symBinAddr: 0x10001174C, symSize: 0x64 }
  - { offsetInCU: 0x1819D, offset: 0x1819D, size: 0x8, addend: 0x0, symName: __ZNKSt3__119ostreambuf_iteratorIcNS_11char_traitsIcEEE6failedB8ue170006Ev, symObjAddr: 0xD408, symBinAddr: 0x1000117B0, symSize: 0x24 }
  - { offsetInCU: 0x181C1, offset: 0x181C1, size: 0x8, addend: 0x0, symName: __ZNSt3__19basic_iosIcNS_11char_traitsIcEEE8setstateB8ue170006Ej, symObjAddr: 0xD42C, symBinAddr: 0x1000117D4, symSize: 0x2C }
  - { offsetInCU: 0x181F5, offset: 0x181F5, size: 0x8, addend: 0x0, symName: __ZNKSt3__18ios_base5widthB8ue170006Ev, symObjAddr: 0xD458, symBinAddr: 0x100011800, symSize: 0x18 }
  - { offsetInCU: 0x1821B, offset: 0x1821B, size: 0x8, addend: 0x0, symName: __ZNSt3__115basic_streambufIcNS_11char_traitsIcEEE5sputnB8ue170006EPKcl, symObjAddr: 0xD470, symBinAddr: 0x100011818, symSize: 0x3C }
  - { offsetInCU: 0x1825C, offset: 0x1825C, size: 0x8, addend: 0x0, symName: __ZNSt3__112basic_stringIcNS_11char_traitsIcEENS_9allocatorIcEEEC1B8ue170006Emc, symObjAddr: 0xD4AC, symBinAddr: 0x100011854, symSize: 0x3C }
  - { offsetInCU: 0x182A2, offset: 0x182A2, size: 0x8, addend: 0x0, symName: __ZNKSt3__112basic_stringIcNS_11char_traitsIcEENS_9allocatorIcEEE4dataB8ue170006Ev, symObjAddr: 0xD4E8, symBinAddr: 0x100011890, symSize: 0x28 }
  - { offsetInCU: 0x182C7, offset: 0x182C7, size: 0x8, addend: 0x0, symName: __ZNSt3__18ios_base5widthB8ue170006El, symObjAddr: 0xD510, symBinAddr: 0x1000118B8, symSize: 0x2C }
  - { offsetInCU: 0x1830C, offset: 0x1830C, size: 0x8, addend: 0x0, symName: __ZNSt3__112basic_stringIcNS_11char_traitsIcEENS_9allocatorIcEEEC2B8ue170006Emc, symObjAddr: 0xD53C, symBinAddr: 0x1000118E4, symSize: 0x4C }
  - { offsetInCU: 0x18353, offset: 0x18353, size: 0x8, addend: 0x0, symName: __ZNSt3__117__compressed_pairINS_12basic_stringIcNS_11char_traitsIcEENS_9allocatorIcEEE5__repES5_EC1B8ue170006INS_18__default_init_tagESA_EEOT_OT0_, symObjAddr: 0xD588, symBinAddr: 0x100011930, symSize: 0x3C }
  - { offsetInCU: 0x183AA, offset: 0x183AA, size: 0x8, addend: 0x0, symName: __ZNSt3__117__compressed_pairINS_12basic_stringIcNS_11char_traitsIcEENS_9allocatorIcEEE5__repES5_EC2B8ue170006INS_18__default_init_tagESA_EEOT_OT0_, symObjAddr: 0xD5C4, symBinAddr: 0x10001196C, symSize: 0x3C }
  - { offsetInCU: 0x18401, offset: 0x18401, size: 0x8, addend: 0x0, symName: __ZNSt3__122__compressed_pair_elemINS_12basic_stringIcNS_11char_traitsIcEENS_9allocatorIcEEE5__repELi0ELb0EEC2B8ue170006ENS_18__default_init_tagE, symObjAddr: 0xD600, symBinAddr: 0x1000119A8, symSize: 0x14 }
  - { offsetInCU: 0x18435, offset: 0x18435, size: 0x8, addend: 0x0, symName: __ZNSt3__122__compressed_pair_elemINS_9allocatorIcEELi1ELb1EEC2B8ue170006ENS_18__default_init_tagE, symObjAddr: 0xD614, symBinAddr: 0x1000119BC, symSize: 0x2C }
  - { offsetInCU: 0x18469, offset: 0x18469, size: 0x8, addend: 0x0, symName: __ZNSt3__19allocatorIcEC2B8ue170006Ev, symObjAddr: 0xD640, symBinAddr: 0x1000119E8, symSize: 0x2C }
  - { offsetInCU: 0x18492, offset: 0x18492, size: 0x8, addend: 0x0, symName: __ZNSt3__116__non_trivial_ifILb1ENS_9allocatorIcEEEC2B8ue170006Ev, symObjAddr: 0xD66C, symBinAddr: 0x100011A14, symSize: 0x14 }
  - { offsetInCU: 0x184BA, offset: 0x184BA, size: 0x8, addend: 0x0, symName: __ZNKSt3__112basic_stringIcNS_11char_traitsIcEENS_9allocatorIcEEE13__get_pointerB8ue170006Ev, symObjAddr: 0xD694, symBinAddr: 0x100011A3C, symSize: 0x54 }
  - { offsetInCU: 0x184DE, offset: 0x184DE, size: 0x8, addend: 0x0, symName: __ZNKSt3__112basic_stringIcNS_11char_traitsIcEENS_9allocatorIcEEE9__is_longB8ue170006Ev, symObjAddr: 0xD6E8, symBinAddr: 0x100011A90, symSize: 0x38 }
  - { offsetInCU: 0x18502, offset: 0x18502, size: 0x8, addend: 0x0, symName: __ZNKSt3__112basic_stringIcNS_11char_traitsIcEENS_9allocatorIcEEE18__get_long_pointerB8ue170006Ev, symObjAddr: 0xD720, symBinAddr: 0x100011AC8, symSize: 0x28 }
  - { offsetInCU: 0x18526, offset: 0x18526, size: 0x8, addend: 0x0, symName: __ZNKSt3__112basic_stringIcNS_11char_traitsIcEENS_9allocatorIcEEE19__get_short_pointerB8ue170006Ev, symObjAddr: 0xD748, symBinAddr: 0x100011AF0, symSize: 0x28 }
  - { offsetInCU: 0x1854A, offset: 0x1854A, size: 0x8, addend: 0x0, symName: __ZNKSt3__117__compressed_pairINS_12basic_stringIcNS_11char_traitsIcEENS_9allocatorIcEEE5__repES5_E5firstB8ue170006Ev, symObjAddr: 0xD770, symBinAddr: 0x100011B18, symSize: 0x24 }
  - { offsetInCU: 0x1856F, offset: 0x1856F, size: 0x8, addend: 0x0, symName: __ZNKSt3__122__compressed_pair_elemINS_12basic_stringIcNS_11char_traitsIcEENS_9allocatorIcEEE5__repELi0ELb0EE5__getB8ue170006Ev, symObjAddr: 0xD794, symBinAddr: 0x100011B3C, symSize: 0x14 }
  - { offsetInCU: 0x18594, offset: 0x18594, size: 0x8, addend: 0x0, symName: __ZNSt3__114pointer_traitsIPKcE10pointer_toB8ue170006ERS1_, symObjAddr: 0xD7A8, symBinAddr: 0x100011B50, symSize: 0x14 }
  - { offsetInCU: 0x185B7, offset: 0x185B7, size: 0x8, addend: 0x0, symName: __ZNSt3__119ostreambuf_iteratorIcNS_11char_traitsIcEEEC2B8ue170006ERNS_13basic_ostreamIcS2_EE, symObjAddr: 0xD7BC, symBinAddr: 0x100011B64, symSize: 0x54 }
  - { offsetInCU: 0x185EE, offset: 0x185EE, size: 0x8, addend: 0x0, symName: __ZNKSt3__19basic_iosIcNS_11char_traitsIcEEE5rdbufB8ue170006Ev, symObjAddr: 0xD810, symBinAddr: 0x100011BB8, symSize: 0x24 }
  - { offsetInCU: 0x18615, offset: 0x18615, size: 0x8, addend: 0x0, symName: __ZNKSt3__18ios_base5rdbufB8ue170006Ev, symObjAddr: 0xD834, symBinAddr: 0x100011BDC, symSize: 0x18 }
  - { offsetInCU: 0x1863A, offset: 0x1863A, size: 0x8, addend: 0x0, symName: __ZNSt3__111char_traitsIcE11eq_int_typeB8ue170006Eii, symObjAddr: 0xD84C, symBinAddr: 0x100011BF4, symSize: 0x28 }
  - { offsetInCU: 0x1866D, offset: 0x1866D, size: 0x8, addend: 0x0, symName: __ZNSt3__111char_traitsIcE3eofB8ue170006Ev, symObjAddr: 0xD874, symBinAddr: 0x100011C1C, symSize: 0x8 }
  - { offsetInCU: 0x18681, offset: 0x18681, size: 0x8, addend: 0x0, symName: __ZNKSt3__19basic_iosIcNS_11char_traitsIcEEE5widenB8ue170006Ec, symObjAddr: 0xD87C, symBinAddr: 0x100011C24, symSize: 0x84 }
  - { offsetInCU: 0x186E8, offset: 0x186E8, size: 0x8, addend: 0x0, symName: __ZNKSt3__15ctypeIcE5widenB8ue170006Ec, symObjAddr: 0xD92C, symBinAddr: 0x100011CD4, symSize: 0x38 }
  - { offsetInCU: 0x1871C, offset: 0x1871C, size: 0x8, addend: 0x0, symName: __ZNSt3__18ios_base8setstateB8ue170006Ej, symObjAddr: 0xD964, symBinAddr: 0x100011D0C, symSize: 0x34 }
  - { offsetInCU: 0x18752, offset: 0x18752, size: 0x8, addend: 0x0, symName: __ZNSt3__16vectorIiNS_9allocatorIiEEEC2B8ue170006ESt16initializer_listIiE, symObjAddr: 0xD9BC, symBinAddr: 0x100011D64, symSize: 0x120 }
  - { offsetInCU: 0x187A1, offset: 0x187A1, size: 0x8, addend: 0x0, symName: __ZNKSt16initializer_listIiE4sizeB8ue170006Ev, symObjAddr: 0xDADC, symBinAddr: 0x100011E84, symSize: 0x18 }
  - { offsetInCU: 0x187C6, offset: 0x187C6, size: 0x8, addend: 0x0, symName: __ZNSt3__16vectorIiNS_9allocatorIiEEE18__construct_at_endIPKiS6_EEvT_T0_m, symObjAddr: 0xDAF4, symBinAddr: 0x100011E9C, symSize: 0x8C }
  - { offsetInCU: 0x18859, offset: 0x18859, size: 0x8, addend: 0x0, symName: __ZNSt3__14pairIPKiS2_EC1B8ue170006IS2_S2_LPv0EEEOT_OT0_, symObjAddr: 0xDCF4, symBinAddr: 0x10001209C, symSize: 0x3C }
  - { offsetInCU: 0x188B6, offset: 0x188B6, size: 0x8, addend: 0x0, symName: __ZNSt3__14pairIPKiS2_EC2B8ue170006IS2_S2_LPv0EEEOT_OT0_, symObjAddr: 0xDD30, symBinAddr: 0x1000120D8, symSize: 0x34 }
  - { offsetInCU: 0x18913, offset: 0x18913, size: 0x8, addend: 0x0, symName: __ZNSt3__118__unwrap_iter_implIPKiLb1EE8__unwrapB8ue170006ES2_, symObjAddr: 0xDD64, symBinAddr: 0x10001210C, symSize: 0x24 }
  - { offsetInCU: 0x1894E, offset: 0x1894E, size: 0x8, addend: 0x0, symName: __ZNKSt3__114__copy_trivialclB8ue170006IKiiLi0EEENS_4pairIPT_PT0_EES5_S5_S7_, symObjAddr: 0xDF18, symBinAddr: 0x1000122C0, symSize: 0x48 }
  - { offsetInCU: 0x189BA, offset: 0x189BA, size: 0x8, addend: 0x0, symName: __ZNSt3__14pairIPKiPiEC1B8ue170006IRS2_S3_LPv0EEEOT_OT0_, symObjAddr: 0xE0E0, symBinAddr: 0x100012488, symSize: 0x3C }
  - { offsetInCU: 0x18A17, offset: 0x18A17, size: 0x8, addend: 0x0, symName: __ZNSt3__14pairIPKiPiEC2B8ue170006IRS2_S3_LPv0EEEOT_OT0_, symObjAddr: 0xE11C, symBinAddr: 0x1000124C4, symSize: 0x34 }
  - { offsetInCU: 0x18A74, offset: 0x18A74, size: 0x8, addend: 0x0, symName: __ZNSt3__14pairIPKiPiEC1B8ue170006IS2_S3_LPv0EEEOT_OT0_, symObjAddr: 0xE150, symBinAddr: 0x1000124F8, symSize: 0x3C }
  - { offsetInCU: 0x18AD1, offset: 0x18AD1, size: 0x8, addend: 0x0, symName: __ZNSt3__14pairIPKiPiEC2B8ue170006IS2_S3_LPv0EEEOT_OT0_, symObjAddr: 0xE18C, symBinAddr: 0x100012534, symSize: 0x34 }
  - { offsetInCU: 0x18B2E, offset: 0x18B2E, size: 0x8, addend: 0x0, symName: __ZNSt3__118__unwrap_iter_implIPKiLb1EE8__rewrapB8ue170006ES2_S2_, symObjAddr: 0xE1FC, symBinAddr: 0x1000125A4, symSize: 0x50 }
  - { offsetInCU: 0x18B5F, offset: 0x18B5F, size: 0x8, addend: 0x0, symName: __ZNSt3__16vectorIiNS_9allocatorIiEEEC2Em, symObjAddr: 0xE24C, symBinAddr: 0x1000125F4, symSize: 0xD4 }
  - { offsetInCU: 0x18BAE, offset: 0x18BAE, size: 0x8, addend: 0x0, symName: __ZNSt3__16vectorIiNS_9allocatorIiEEE18__construct_at_endEm, symObjAddr: 0xE320, symBinAddr: 0x1000126C8, symSize: 0xC8 }
  - { offsetInCU: 0x18C1F, offset: 0x18C1F, size: 0x8, addend: 0x0, symName: __ZNSt3__116allocator_traitsINS_9allocatorIiEEE9constructB8ue170006IiJEvEEvRS2_PT_DpOT0_, symObjAddr: 0xE3E8, symBinAddr: 0x100012790, symSize: 0x2C }
  - { offsetInCU: 0x18C61, offset: 0x18C61, size: 0x8, addend: 0x0, symName: __ZNSt3__19allocatorIiE9constructB8ue170006IiJEEEvPT_DpOT0_, symObjAddr: 0xE414, symBinAddr: 0x1000127BC, symSize: 0x1C }
...
